Component: ARM Compiler 5.05 update 2 (build 169) Tool: armlink [4d0f33]

==============================================================================

Section Cross References

    main.o(i.Hardware_Init) refers to sys.o(i.NVIC_Configuration) for NVIC_Configuration
    main.o(i.Hardware_Init) refers to delay.o(i.delay_init) for delay_init
    main.o(i.Hardware_Init) refers to usart.o(i.Usart1_Init) for Usart1_Init
    main.o(i.Hardware_Init) refers to usart.o(i.Usart2_Init) for Usart2_Init
    main.o(i.Hardware_Init) refers to usart.o(i.Usart4_Init) for Usart4_Init
    main.o(i.Hardware_Init) refers to esp8266.o(i.ESP8266_Init) for ESP8266_Init
    main.o(i.Hardware_Init) refers to key.o(i.KEY_Init) for KEY_Init
    main.o(i.Hardware_Init) refers to oled.o(i.OLED_Init) for OLED_Init
    main.o(i.Hardware_Init) refers to iic2.o(i.SMBus_Init) for SMBus_Init
    main.o(i.Hardware_Init) refers to max30102.o(i.max30102_init) for max30102_init
    main.o(i.get_heartblood) refers to _printf_percent.o(.ARM.Collect$$_printf_percent$$00000000) for _printf_percent
    main.o(i.get_heartblood) refers to _printf_d.o(.ARM.Collect$$_printf_percent$$00000009) for _printf_d
    main.o(i.get_heartblood) refers to _printf_dec.o(.text) for _printf_int_dec
    main.o(i.get_heartblood) refers to oled.o(i.OLED_Clear) for OLED_Clear
    main.o(i.get_heartblood) refers to oled.o(i.OLED_ShowChinese) for OLED_ShowChinese
    main.o(i.get_heartblood) refers to oled.o(i.OLED_ShowChar) for OLED_ShowChar
    main.o(i.get_heartblood) refers to oled.o(i.OLED_Refresh) for OLED_Refresh
    main.o(i.get_heartblood) refers to max30102.o(i.max30102_FIFO_ReadBytes) for max30102_FIFO_ReadBytes
    main.o(i.get_heartblood) refers to algorithm.o(i.maxim_heart_rate_and_oxygen_saturation) for maxim_heart_rate_and_oxygen_saturation
    main.o(i.get_heartblood) refers to usart.o(i.UsartPrintf) for UsartPrintf
    main.o(i.get_heartblood) refers to oled.o(i.OLED_ShowNum) for OLED_ShowNum
    main.o(i.get_heartblood) refers to __2sprintf.o(.text) for __2sprintf
    main.o(i.get_heartblood) refers to onenet.o(i.OneNet_Publish) for OneNet_Publish
    main.o(i.get_heartblood) refers to esp8266.o(i.ESP8266_Clear) for ESP8266_Clear
    main.o(i.get_heartblood) refers to delay.o(i.delay_ms) for delay_ms
    main.o(i.get_heartblood) refers to main.o(.bss) for aun_red_buffer
    main.o(i.get_heartblood) refers to main.o(.data) for ch_hr_valid
    main.o(i.get_temperature) refers to _printf_percent.o(.ARM.Collect$$_printf_percent$$00000000) for _printf_percent
    main.o(i.get_temperature) refers to _printf_d.o(.ARM.Collect$$_printf_percent$$00000009) for _printf_d
    main.o(i.get_temperature) refers to _printf_f.o(.ARM.Collect$$_printf_percent$$00000003) for _printf_f
    main.o(i.get_temperature) refers to _printf_dec.o(.text) for _printf_int_dec
    main.o(i.get_temperature) refers to printf1.o(x$fpl$printf1) for _printf_fp_dec
    main.o(i.get_temperature) refers to iic2.o(i.SMBus_ReadTemp) for SMBus_ReadTemp
    main.o(i.get_temperature) refers to f2d.o(x$fpl$f2d) for __aeabi_f2d
    main.o(i.get_temperature) refers to usart.o(i.UsartPrintf) for UsartPrintf
    main.o(i.get_temperature) refers to daddsub_clz.o(x$fpl$dadd) for __aeabi_dadd
    main.o(i.get_temperature) refers to d2f.o(x$fpl$d2f) for __aeabi_d2f
    main.o(i.get_temperature) refers to oled.o(i.OLED_Clear) for OLED_Clear
    main.o(i.get_temperature) refers to oled.o(i.OLED_ShowChinese) for OLED_ShowChinese
    main.o(i.get_temperature) refers to oled.o(i.OLED_ShowChar) for OLED_ShowChar
    main.o(i.get_temperature) refers to ffix.o(x$fpl$ffix) for __aeabi_f2iz
    main.o(i.get_temperature) refers to oled.o(i.OLED_ShowNum) for OLED_ShowNum
    main.o(i.get_temperature) refers to fmul.o(x$fpl$fmul) for __aeabi_fmul
    main.o(i.get_temperature) refers to oled.o(i.OLED_Refresh) for OLED_Refresh
    main.o(i.get_temperature) refers to __2sprintf.o(.text) for __2sprintf
    main.o(i.get_temperature) refers to onenet.o(i.OneNet_Publish) for OneNet_Publish
    main.o(i.get_temperature) refers to esp8266.o(i.ESP8266_Clear) for ESP8266_Clear
    main.o(i.get_temperature) refers to delay.o(i.delay_ms) for delay_ms
    main.o(i.get_temperature) refers to main.o(.data) for usr
    main.o(i.get_temperature) refers to main.o(.bss) for buf
    main.o(i.main) refers to main.o(i.Hardware_Init) for Hardware_Init
    main.o(i.main) refers to oled.o(i.OLED_Show_Await_Face) for OLED_Show_Await_Face
    main.o(i.main) refers to delay.o(i.delay_ms) for delay_ms
    main.o(i.main) refers to onenet.o(i.OneNet_DevLink) for OneNet_DevLink
    main.o(i.main) refers to onenet.o(i.OneNet_Subscribe) for OneNet_Subscribe
    main.o(i.main) refers to key.o(i.KEY_Scan) for KEY_Scan
    main.o(i.main) refers to as608.o(i.press_FR) for press_FR
    main.o(i.main) refers to usart.o(i.UsartPrintf) for UsartPrintf
    main.o(i.main) refers to main.o(i.get_heartblood) for get_heartblood
    main.o(i.main) refers to main.o(i.get_temperature) for get_temperature
    main.o(i.main) refers to esp8266.o(i.ESP8266_GetIPD) for ESP8266_GetIPD
    main.o(i.main) refers to onenet.o(i.OneNet_RevPro) for OneNet_RevPro
    main.o(i.main) refers to main.o(.data) for user_flag
    main.o(.data) refers to main.o(.conststring) for .conststring
    system_stm32f10x.o(i.SetSysClock) refers to system_stm32f10x.o(i.SetSysClockTo72) for SetSysClockTo72
    system_stm32f10x.o(i.SystemCoreClockUpdate) refers to system_stm32f10x.o(.data) for SystemCoreClock
    system_stm32f10x.o(i.SystemInit) refers to system_stm32f10x.o(i.SetSysClock) for SetSysClock
    delay.o(i.delay_init) refers to misc.o(i.SysTick_CLKSourceConfig) for SysTick_CLKSourceConfig
    delay.o(i.delay_init) refers to system_stm32f10x.o(.data) for SystemCoreClock
    delay.o(i.delay_init) refers to delay.o(.data) for fac_us
    delay.o(i.delay_ms) refers to delay.o(.data) for fac_ms
    delay.o(i.delay_us) refers to delay.o(.data) for fac_us
    sys.o(i.NVIC_Configuration) refers to misc.o(i.NVIC_PriorityGroupConfig) for NVIC_PriorityGroupConfig
    usart.o(i.UART4_IRQHandler) refers to stm32f10x_usart.o(i.USART_GetITStatus) for USART_GetITStatus
    usart.o(i.UART4_IRQHandler) refers to stm32f10x_usart.o(i.USART_ReceiveData) for USART_ReceiveData
    usart.o(i.UART4_IRQHandler) refers to stm32f10x_tim.o(i.TIM_SetCounter) for TIM_SetCounter
    usart.o(i.UART4_IRQHandler) refers to stm32f10x_tim.o(i.TIM_Cmd) for TIM_Cmd
    usart.o(i.UART4_IRQHandler) refers to usart.o(.data) for USART3_RX_STA
    usart.o(i.UART4_IRQHandler) refers to usart.o(.bss) for USART3_RX_BUF
    usart.o(i.USART1_IRQHandler) refers to stm32f10x_usart.o(i.USART_GetITStatus) for USART_GetITStatus
    usart.o(i.USART1_IRQHandler) refers to stm32f10x_usart.o(i.USART_ClearFlag) for USART_ClearFlag
    usart.o(i.Usart1_Init) refers to stm32f10x_rcc.o(i.RCC_APB2PeriphClockCmd) for RCC_APB2PeriphClockCmd
    usart.o(i.Usart1_Init) refers to stm32f10x_gpio.o(i.GPIO_Init) for GPIO_Init
    usart.o(i.Usart1_Init) refers to stm32f10x_usart.o(i.USART_Init) for USART_Init
    usart.o(i.Usart1_Init) refers to stm32f10x_usart.o(i.USART_Cmd) for USART_Cmd
    usart.o(i.Usart1_Init) refers to stm32f10x_usart.o(i.USART_ITConfig) for USART_ITConfig
    usart.o(i.Usart1_Init) refers to misc.o(i.NVIC_Init) for NVIC_Init
    usart.o(i.Usart2_Init) refers to stm32f10x_rcc.o(i.RCC_APB2PeriphClockCmd) for RCC_APB2PeriphClockCmd
    usart.o(i.Usart2_Init) refers to stm32f10x_rcc.o(i.RCC_APB1PeriphClockCmd) for RCC_APB1PeriphClockCmd
    usart.o(i.Usart2_Init) refers to stm32f10x_gpio.o(i.GPIO_Init) for GPIO_Init
    usart.o(i.Usart2_Init) refers to stm32f10x_usart.o(i.USART_Init) for USART_Init
    usart.o(i.Usart2_Init) refers to stm32f10x_usart.o(i.USART_Cmd) for USART_Cmd
    usart.o(i.Usart2_Init) refers to stm32f10x_usart.o(i.USART_ITConfig) for USART_ITConfig
    usart.o(i.Usart2_Init) refers to misc.o(i.NVIC_Init) for NVIC_Init
    usart.o(i.Usart4_Init) refers to stm32f10x_rcc.o(i.RCC_APB2PeriphClockCmd) for RCC_APB2PeriphClockCmd
    usart.o(i.Usart4_Init) refers to stm32f10x_rcc.o(i.RCC_APB1PeriphClockCmd) for RCC_APB1PeriphClockCmd
    usart.o(i.Usart4_Init) refers to stm32f10x_gpio.o(i.GPIO_Init) for GPIO_Init
    usart.o(i.Usart4_Init) refers to stm32f10x_usart.o(i.USART_Init) for USART_Init
    usart.o(i.Usart4_Init) refers to stm32f10x_usart.o(i.USART_Cmd) for USART_Cmd
    usart.o(i.Usart4_Init) refers to stm32f10x_usart.o(i.USART_ITConfig) for USART_ITConfig
    usart.o(i.Usart4_Init) refers to misc.o(i.NVIC_Init) for NVIC_Init
    usart.o(i.Usart4_Init) refers to timer.o(i.TIM7_Int_Init) for TIM7_Int_Init
    usart.o(i.Usart4_Init) refers to stm32f10x_tim.o(i.TIM_Cmd) for TIM_Cmd
    usart.o(i.Usart4_Init) refers to usart.o(.data) for USART3_RX_STA
    usart.o(i.UsartPrintf) refers to c89vsnprintf.o(.text) for __c89vsnprintf
    usart.o(i.UsartPrintf) refers to stm32f10x_usart.o(i.USART_SendData) for USART_SendData
    usart.o(i.UsartPrintf) refers to stm32f10x_usart.o(i.USART_GetFlagStatus) for USART_GetFlagStatus
    usart.o(i.Usart_SendString) refers to stm32f10x_usart.o(i.USART_SendData) for USART_SendData
    usart.o(i.Usart_SendString) refers to stm32f10x_usart.o(i.USART_GetFlagStatus) for USART_GetFlagStatus
    timer.o(i.TIM2_IRQHandler) refers to stm32f10x_tim.o(i.TIM_GetITStatus) for TIM_GetITStatus
    timer.o(i.TIM2_IRQHandler) refers to stm32f10x_tim.o(i.TIM_ClearITPendingBit) for TIM_ClearITPendingBit
    timer.o(i.TIM2_Int_Init) refers to stm32f10x_rcc.o(i.RCC_APB1PeriphClockCmd) for RCC_APB1PeriphClockCmd
    timer.o(i.TIM2_Int_Init) refers to stm32f10x_tim.o(i.TIM_TimeBaseInit) for TIM_TimeBaseInit
    timer.o(i.TIM2_Int_Init) refers to stm32f10x_tim.o(i.TIM_ITConfig) for TIM_ITConfig
    timer.o(i.TIM2_Int_Init) refers to misc.o(i.NVIC_Init) for NVIC_Init
    timer.o(i.TIM2_Int_Init) refers to stm32f10x_tim.o(i.TIM_Cmd) for TIM_Cmd
    timer.o(i.TIM3_IRQHandler) refers to stm32f10x_tim.o(i.TIM_GetITStatus) for TIM_GetITStatus
    timer.o(i.TIM3_IRQHandler) refers to stm32f10x_tim.o(i.TIM_ClearITPendingBit) for TIM_ClearITPendingBit
    timer.o(i.TIM3_Int_Init) refers to stm32f10x_rcc.o(i.RCC_APB1PeriphClockCmd) for RCC_APB1PeriphClockCmd
    timer.o(i.TIM3_Int_Init) refers to stm32f10x_tim.o(i.TIM_TimeBaseInit) for TIM_TimeBaseInit
    timer.o(i.TIM3_Int_Init) refers to stm32f10x_tim.o(i.TIM_ITConfig) for TIM_ITConfig
    timer.o(i.TIM3_Int_Init) refers to misc.o(i.NVIC_Init) for NVIC_Init
    timer.o(i.TIM3_Int_Init) refers to stm32f10x_tim.o(i.TIM_Cmd) for TIM_Cmd
    timer.o(i.TIM7_IRQHandler) refers to stm32f10x_tim.o(i.TIM_GetITStatus) for TIM_GetITStatus
    timer.o(i.TIM7_IRQHandler) refers to stm32f10x_tim.o(i.TIM_ClearITPendingBit) for TIM_ClearITPendingBit
    timer.o(i.TIM7_IRQHandler) refers to stm32f10x_tim.o(i.TIM_Cmd) for TIM_Cmd
    timer.o(i.TIM7_IRQHandler) refers to usart.o(.data) for USART3_RX_STA
    timer.o(i.TIM7_Int_Init) refers to stm32f10x_rcc.o(i.RCC_APB1PeriphClockCmd) for RCC_APB1PeriphClockCmd
    timer.o(i.TIM7_Int_Init) refers to stm32f10x_tim.o(i.TIM_TimeBaseInit) for TIM_TimeBaseInit
    timer.o(i.TIM7_Int_Init) refers to stm32f10x_tim.o(i.TIM_ITConfig) for TIM_ITConfig
    timer.o(i.TIM7_Int_Init) refers to stm32f10x_tim.o(i.TIM_Cmd) for TIM_Cmd
    timer.o(i.TIM7_Int_Init) refers to misc.o(i.NVIC_Init) for NVIC_Init
    timer.o(i.dis_DrawCurve) refers to oled.o(i.OLED_DrawPoint) for OLED_DrawPoint
    stm32f10x_gpio.o(i.GPIO_AFIODeInit) refers to stm32f10x_rcc.o(i.RCC_APB2PeriphResetCmd) for RCC_APB2PeriphResetCmd
    stm32f10x_gpio.o(i.GPIO_DeInit) refers to stm32f10x_rcc.o(i.RCC_APB2PeriphResetCmd) for RCC_APB2PeriphResetCmd
    stm32f10x_rcc.o(i.RCC_GetClocksFreq) refers to stm32f10x_rcc.o(.data) for APBAHBPrescTable
    stm32f10x_rcc.o(i.RCC_WaitForHSEStartUp) refers to stm32f10x_rcc.o(i.RCC_GetFlagStatus) for RCC_GetFlagStatus
    stm32f10x_usart.o(i.USART_DeInit) refers to stm32f10x_rcc.o(i.RCC_APB2PeriphResetCmd) for RCC_APB2PeriphResetCmd
    stm32f10x_usart.o(i.USART_DeInit) refers to stm32f10x_rcc.o(i.RCC_APB1PeriphResetCmd) for RCC_APB1PeriphResetCmd
    stm32f10x_usart.o(i.USART_Init) refers to stm32f10x_rcc.o(i.RCC_GetClocksFreq) for RCC_GetClocksFreq
    stm32f10x_tim.o(i.TIM_DeInit) refers to stm32f10x_rcc.o(i.RCC_APB2PeriphResetCmd) for RCC_APB2PeriphResetCmd
    stm32f10x_tim.o(i.TIM_DeInit) refers to stm32f10x_rcc.o(i.RCC_APB1PeriphResetCmd) for RCC_APB1PeriphResetCmd
    stm32f10x_tim.o(i.TIM_ETRClockMode1Config) refers to stm32f10x_tim.o(i.TIM_ETRConfig) for TIM_ETRConfig
    stm32f10x_tim.o(i.TIM_ETRClockMode2Config) refers to stm32f10x_tim.o(i.TIM_ETRConfig) for TIM_ETRConfig
    stm32f10x_tim.o(i.TIM_ICInit) refers to stm32f10x_tim.o(i.TI1_Config) for TI1_Config
    stm32f10x_tim.o(i.TIM_ICInit) refers to stm32f10x_tim.o(i.TIM_SetIC1Prescaler) for TIM_SetIC1Prescaler
    stm32f10x_tim.o(i.TIM_ICInit) refers to stm32f10x_tim.o(i.TI2_Config) for TI2_Config
    stm32f10x_tim.o(i.TIM_ICInit) refers to stm32f10x_tim.o(i.TIM_SetIC2Prescaler) for TIM_SetIC2Prescaler
    stm32f10x_tim.o(i.TIM_ICInit) refers to stm32f10x_tim.o(i.TI3_Config) for TI3_Config
    stm32f10x_tim.o(i.TIM_ICInit) refers to stm32f10x_tim.o(i.TIM_SetIC3Prescaler) for TIM_SetIC3Prescaler
    stm32f10x_tim.o(i.TIM_ICInit) refers to stm32f10x_tim.o(i.TI4_Config) for TI4_Config
    stm32f10x_tim.o(i.TIM_ICInit) refers to stm32f10x_tim.o(i.TIM_SetIC4Prescaler) for TIM_SetIC4Prescaler
    stm32f10x_tim.o(i.TIM_ITRxExternalClockConfig) refers to stm32f10x_tim.o(i.TIM_SelectInputTrigger) for TIM_SelectInputTrigger
    stm32f10x_tim.o(i.TIM_PWMIConfig) refers to stm32f10x_tim.o(i.TI1_Config) for TI1_Config
    stm32f10x_tim.o(i.TIM_PWMIConfig) refers to stm32f10x_tim.o(i.TIM_SetIC1Prescaler) for TIM_SetIC1Prescaler
    stm32f10x_tim.o(i.TIM_PWMIConfig) refers to stm32f10x_tim.o(i.TI2_Config) for TI2_Config
    stm32f10x_tim.o(i.TIM_PWMIConfig) refers to stm32f10x_tim.o(i.TIM_SetIC2Prescaler) for TIM_SetIC2Prescaler
    stm32f10x_tim.o(i.TIM_TIxExternalClockConfig) refers to stm32f10x_tim.o(i.TI2_Config) for TI2_Config
    stm32f10x_tim.o(i.TIM_TIxExternalClockConfig) refers to stm32f10x_tim.o(i.TI1_Config) for TI1_Config
    stm32f10x_tim.o(i.TIM_TIxExternalClockConfig) refers to stm32f10x_tim.o(i.TIM_SelectInputTrigger) for TIM_SelectInputTrigger
    key.o(i.KEY_Init) refers to stm32f10x_rcc.o(i.RCC_APB2PeriphClockCmd) for RCC_APB2PeriphClockCmd
    key.o(i.KEY_Init) refers to stm32f10x_gpio.o(i.GPIO_Init) for GPIO_Init
    key.o(i.KEY_Scan) refers to stm32f10x_gpio.o(i.GPIO_ReadInputDataBit) for GPIO_ReadInputDataBit
    key.o(i.KEY_Scan) refers to delay.o(i.delay_ms) for delay_ms
    key.o(i.KEY_Scan) refers to key.o(.data) for key_up
    led.o(i.LED_Init) refers to stm32f10x_rcc.o(i.RCC_APB2PeriphClockCmd) for RCC_APB2PeriphClockCmd
    led.o(i.LED_Init) refers to stm32f10x_gpio.o(i.GPIO_Init) for GPIO_Init
    led.o(i.LED_Init) refers to stm32f10x_gpio.o(i.GPIO_SetBits) for GPIO_SetBits
    oled.o(i.OLED_Clear) refers to oled.o(i.OLED_Refresh) for OLED_Refresh
    oled.o(i.OLED_Clear) refers to oled.o(.bss) for OLED_GRAM
    oled.o(i.OLED_ClearPoint) refers to oled.o(.bss) for OLED_GRAM
    oled.o(i.OLED_ColorTurn) refers to oled.o(i.OLED_WR_Byte) for OLED_WR_Byte
    oled.o(i.OLED_DisPlay_Off) refers to oled.o(i.OLED_WR_Byte) for OLED_WR_Byte
    oled.o(i.OLED_DisPlay_On) refers to oled.o(i.OLED_WR_Byte) for OLED_WR_Byte
    oled.o(i.OLED_DisplayTurn) refers to oled.o(i.OLED_WR_Byte) for OLED_WR_Byte
    oled.o(i.OLED_DrawCircle) refers to oled.o(i.OLED_DrawPoint) for OLED_DrawPoint
    oled.o(i.OLED_DrawLine) refers to oled.o(i.OLED_DrawPoint) for OLED_DrawPoint
    oled.o(i.OLED_DrawPoint) refers to oled.o(.bss) for OLED_GRAM
    oled.o(i.OLED_Init) refers to stm32f10x_rcc.o(i.RCC_APB2PeriphClockCmd) for RCC_APB2PeriphClockCmd
    oled.o(i.OLED_Init) refers to stm32f10x_gpio.o(i.GPIO_Init) for GPIO_Init
    oled.o(i.OLED_Init) refers to stm32f10x_gpio.o(i.GPIO_SetBits) for GPIO_SetBits
    oled.o(i.OLED_Init) refers to stm32f10x_gpio.o(i.GPIO_ResetBits) for GPIO_ResetBits
    oled.o(i.OLED_Init) refers to delay.o(i.delay_ms) for delay_ms
    oled.o(i.OLED_Init) refers to oled.o(i.OLED_WR_Byte) for OLED_WR_Byte
    oled.o(i.OLED_Init) refers to oled.o(i.OLED_Clear) for OLED_Clear
    oled.o(i.OLED_Refresh) refers to oled.o(i.OLED_WR_Byte) for OLED_WR_Byte
    oled.o(i.OLED_Refresh) refers to oled.o(.bss) for OLED_GRAM
    oled.o(i.OLED_SHOWSTR) refers to oled.o(i.OLED_ShowChinese_16) for OLED_ShowChinese_16
    oled.o(i.OLED_ScrollDisplay) refers to oled.o(i.OLED_ShowChinese) for OLED_ShowChinese
    oled.o(i.OLED_ScrollDisplay) refers to oled.o(i.OLED_Refresh) for OLED_Refresh
    oled.o(i.OLED_ScrollDisplay) refers to oled.o(.bss) for OLED_GRAM
    oled.o(i.OLED_ShowChar) refers to oled.o(i.OLED_DrawPoint) for OLED_DrawPoint
    oled.o(i.OLED_ShowChar) refers to oled.o(i.OLED_ClearPoint) for OLED_ClearPoint
    oled.o(i.OLED_ShowChar) refers to oled.o(.constdata) for asc2_1206
    oled.o(i.OLED_ShowChinese) refers to oled.o(i.OLED_DrawPoint) for OLED_DrawPoint
    oled.o(i.OLED_ShowChinese) refers to oled.o(i.OLED_ClearPoint) for OLED_ClearPoint
    oled.o(i.OLED_ShowChinese) refers to oled.o(.data) for Hzk1
    oled.o(i.OLED_ShowChinese_16) refers to oled.o(i.OLED_DrawPoint) for OLED_DrawPoint
    oled.o(i.OLED_ShowChinese_16) refers to oled.o(i.OLED_ClearPoint) for OLED_ClearPoint
    oled.o(i.OLED_ShowNum) refers to oled.o(i.OLED_Pow) for OLED_Pow
    oled.o(i.OLED_ShowNum) refers to oled.o(i.OLED_ShowChar) for OLED_ShowChar
    oled.o(i.OLED_ShowPicture) refers to oled.o(i.OLED_WR_BP) for OLED_WR_BP
    oled.o(i.OLED_ShowPicture) refers to oled.o(i.OLED_WR_Byte) for OLED_WR_Byte
    oled.o(i.OLED_ShowString) refers to oled.o(i.OLED_ShowChar) for OLED_ShowChar
    oled.o(i.OLED_Show_Await_Face) refers to oled.o(i.OLED_Clear) for OLED_Clear
    oled.o(i.OLED_Show_Await_Face) refers to oled.o(i.OLED_ShowChinese) for OLED_ShowChinese
    oled.o(i.OLED_Show_Await_Face) refers to oled.o(i.OLED_ShowChar) for OLED_ShowChar
    oled.o(i.OLED_Show_Await_Face) refers to oled.o(i.OLED_ShowNum) for OLED_ShowNum
    oled.o(i.OLED_Show_Await_Face) refers to oled.o(i.OLED_Refresh) for OLED_Refresh
    oled.o(i.OLED_Show_Await_Face) refers to main.o(.data) for deviceid
    oled.o(i.OLED_WR_BP) refers to oled.o(i.OLED_WR_Byte) for OLED_WR_Byte
    oled.o(i.OLED_WR_Byte) refers to stm32f10x_gpio.o(i.GPIO_SetBits) for GPIO_SetBits
    oled.o(i.OLED_WR_Byte) refers to stm32f10x_gpio.o(i.GPIO_ResetBits) for GPIO_ResetBits
    algorithm.o(i.maxim_find_peaks) refers to algorithm.o(i.maxim_peaks_above_min_height) for maxim_peaks_above_min_height
    algorithm.o(i.maxim_find_peaks) refers to algorithm.o(i.maxim_remove_close_peaks) for maxim_remove_close_peaks
    algorithm.o(i.maxim_heart_rate_and_oxygen_saturation) refers to algorithm.o(i.maxim_find_peaks) for maxim_find_peaks
    algorithm.o(i.maxim_heart_rate_and_oxygen_saturation) refers to algorithm.o(.bss) for an_x
    algorithm.o(i.maxim_heart_rate_and_oxygen_saturation) refers to algorithm.o(.constdata) for auw_hamm
    algorithm.o(i.maxim_heart_rate_and_oxygen_saturation) refers to algorithm.o(i.maxim_sort_ascend) for maxim_sort_ascend
    algorithm.o(i.maxim_remove_close_peaks) refers to algorithm.o(i.maxim_sort_indices_descend) for maxim_sort_indices_descend
    algorithm.o(i.maxim_remove_close_peaks) refers to algorithm.o(i.maxim_sort_ascend) for maxim_sort_ascend
    max30102.o(i.max30102_Bus_Read) refers to myiic.o(i.IIC_Start) for IIC_Start
    max30102.o(i.max30102_Bus_Read) refers to myiic.o(i.IIC_Send_Byte) for IIC_Send_Byte
    max30102.o(i.max30102_Bus_Read) refers to myiic.o(i.IIC_Wait_Ack) for IIC_Wait_Ack
    max30102.o(i.max30102_Bus_Read) refers to myiic.o(i.IIC_Read_Byte) for IIC_Read_Byte
    max30102.o(i.max30102_Bus_Read) refers to myiic.o(i.IIC_NAck) for IIC_NAck
    max30102.o(i.max30102_Bus_Read) refers to myiic.o(i.IIC_Stop) for IIC_Stop
    max30102.o(i.max30102_Bus_Write) refers to myiic.o(i.IIC_Start) for IIC_Start
    max30102.o(i.max30102_Bus_Write) refers to myiic.o(i.IIC_Send_Byte) for IIC_Send_Byte
    max30102.o(i.max30102_Bus_Write) refers to myiic.o(i.IIC_Wait_Ack) for IIC_Wait_Ack
    max30102.o(i.max30102_Bus_Write) refers to myiic.o(i.IIC_Stop) for IIC_Stop
    max30102.o(i.max30102_FIFO_ReadBytes) refers to max30102.o(i.max30102_Bus_Read) for max30102_Bus_Read
    max30102.o(i.max30102_FIFO_ReadBytes) refers to myiic.o(i.IIC_Start) for IIC_Start
    max30102.o(i.max30102_FIFO_ReadBytes) refers to myiic.o(i.IIC_Send_Byte) for IIC_Send_Byte
    max30102.o(i.max30102_FIFO_ReadBytes) refers to myiic.o(i.IIC_Wait_Ack) for IIC_Wait_Ack
    max30102.o(i.max30102_FIFO_ReadBytes) refers to myiic.o(i.IIC_Read_Byte) for IIC_Read_Byte
    max30102.o(i.max30102_FIFO_ReadBytes) refers to myiic.o(i.IIC_Stop) for IIC_Stop
    max30102.o(i.max30102_FIFO_ReadWords) refers to myiic.o(i.IIC_Start) for IIC_Start
    max30102.o(i.max30102_FIFO_ReadWords) refers to myiic.o(i.IIC_Send_Byte) for IIC_Send_Byte
    max30102.o(i.max30102_FIFO_ReadWords) refers to myiic.o(i.IIC_Wait_Ack) for IIC_Wait_Ack
    max30102.o(i.max30102_FIFO_ReadWords) refers to myiic.o(i.IIC_Read_Byte) for IIC_Read_Byte
    max30102.o(i.max30102_FIFO_ReadWords) refers to myiic.o(i.IIC_Ack) for IIC_Ack
    max30102.o(i.max30102_FIFO_ReadWords) refers to myiic.o(i.IIC_NAck) for IIC_NAck
    max30102.o(i.max30102_FIFO_ReadWords) refers to myiic.o(i.IIC_Stop) for IIC_Stop
    max30102.o(i.max30102_init) refers to stm32f10x_rcc.o(i.RCC_APB2PeriphClockCmd) for RCC_APB2PeriphClockCmd
    max30102.o(i.max30102_init) refers to stm32f10x_gpio.o(i.GPIO_Init) for GPIO_Init
    max30102.o(i.max30102_init) refers to myiic.o(i.IIC_Init) for IIC_Init
    max30102.o(i.max30102_init) refers to max30102.o(i.max30102_reset) for max30102_reset
    max30102.o(i.max30102_init) refers to max30102.o(i.max30102_Bus_Write) for max30102_Bus_Write
    max30102.o(i.max30102_reset) refers to max30102.o(i.max30102_Bus_Write) for max30102_Bus_Write
    max30102.o(i.maxim_max30102_read_fifo) refers to max30102.o(i.maxim_max30102_read_reg) for maxim_max30102_read_reg
    max30102.o(i.maxim_max30102_read_fifo) refers to myiic.o(i.IIC_ReadBytes) for IIC_ReadBytes
    max30102.o(i.maxim_max30102_read_reg) refers to myiic.o(i.IIC_Read_One_Byte) for IIC_Read_One_Byte
    max30102.o(i.maxim_max30102_write_reg) refers to myiic.o(i.IIC_Write_One_Byte) for IIC_Write_One_Byte
    myiic.o(i.IIC_Ack) refers to delay.o(i.delay_us) for delay_us
    myiic.o(i.IIC_Init) refers to stm32f10x_rcc.o(i.RCC_APB2PeriphClockCmd) for RCC_APB2PeriphClockCmd
    myiic.o(i.IIC_Init) refers to stm32f10x_gpio.o(i.GPIO_Init) for GPIO_Init
    myiic.o(i.IIC_Init) refers to stm32f10x_gpio.o(i.GPIO_SetBits) for GPIO_SetBits
    myiic.o(i.IIC_NAck) refers to delay.o(i.delay_us) for delay_us
    myiic.o(i.IIC_ReadBytes) refers to myiic.o(i.IIC_Start) for IIC_Start
    myiic.o(i.IIC_ReadBytes) refers to myiic.o(i.IIC_Send_Byte) for IIC_Send_Byte
    myiic.o(i.IIC_ReadBytes) refers to myiic.o(i.IIC_Wait_Ack) for IIC_Wait_Ack
    myiic.o(i.IIC_ReadBytes) refers to myiic.o(i.IIC_Read_Byte) for IIC_Read_Byte
    myiic.o(i.IIC_ReadBytes) refers to myiic.o(i.IIC_Stop) for IIC_Stop
    myiic.o(i.IIC_ReadBytes) refers to delay.o(i.delay_ms) for delay_ms
    myiic.o(i.IIC_Read_Byte) refers to delay.o(i.delay_us) for delay_us
    myiic.o(i.IIC_Read_Byte) refers to myiic.o(i.IIC_NAck) for IIC_NAck
    myiic.o(i.IIC_Read_Byte) refers to myiic.o(i.IIC_Ack) for IIC_Ack
    myiic.o(i.IIC_Read_One_Byte) refers to myiic.o(i.IIC_Start) for IIC_Start
    myiic.o(i.IIC_Read_One_Byte) refers to myiic.o(i.IIC_Send_Byte) for IIC_Send_Byte
    myiic.o(i.IIC_Read_One_Byte) refers to myiic.o(i.IIC_Wait_Ack) for IIC_Wait_Ack
    myiic.o(i.IIC_Read_One_Byte) refers to myiic.o(i.IIC_Read_Byte) for IIC_Read_Byte
    myiic.o(i.IIC_Read_One_Byte) refers to myiic.o(i.IIC_Stop) for IIC_Stop
    myiic.o(i.IIC_Send_Byte) refers to delay.o(i.delay_us) for delay_us
    myiic.o(i.IIC_Start) refers to delay.o(i.delay_us) for delay_us
    myiic.o(i.IIC_Stop) refers to delay.o(i.delay_us) for delay_us
    myiic.o(i.IIC_Wait_Ack) refers to delay.o(i.delay_us) for delay_us
    myiic.o(i.IIC_Wait_Ack) refers to myiic.o(i.IIC_Stop) for IIC_Stop
    myiic.o(i.IIC_WriteBytes) refers to myiic.o(i.IIC_Start) for IIC_Start
    myiic.o(i.IIC_WriteBytes) refers to myiic.o(i.IIC_Send_Byte) for IIC_Send_Byte
    myiic.o(i.IIC_WriteBytes) refers to myiic.o(i.IIC_Wait_Ack) for IIC_Wait_Ack
    myiic.o(i.IIC_WriteBytes) refers to myiic.o(i.IIC_Stop) for IIC_Stop
    myiic.o(i.IIC_WriteBytes) refers to delay.o(i.delay_ms) for delay_ms
    myiic.o(i.IIC_Write_One_Byte) refers to myiic.o(i.IIC_Start) for IIC_Start
    myiic.o(i.IIC_Write_One_Byte) refers to myiic.o(i.IIC_Send_Byte) for IIC_Send_Byte
    myiic.o(i.IIC_Write_One_Byte) refers to myiic.o(i.IIC_Wait_Ack) for IIC_Wait_Ack
    myiic.o(i.IIC_Write_One_Byte) refers to myiic.o(i.IIC_Stop) for IIC_Stop
    myiic.o(i.IIC_Write_One_Byte) refers to delay.o(i.delay_ms) for delay_ms
    as608.o(i.Add_FR) refers to oled.o(i.OLED_Clear) for OLED_Clear
    as608.o(i.Add_FR) refers to oled.o(i.OLED_ShowChinese) for OLED_ShowChinese
    as608.o(i.Add_FR) refers to oled.o(i.OLED_Refresh) for OLED_Refresh
    as608.o(i.Add_FR) refers to usart.o(i.UsartPrintf) for UsartPrintf
    as608.o(i.Add_FR) refers to as608.o(i.PS_GetImage) for PS_GetImage
    as608.o(i.Add_FR) refers to as608.o(i.PS_GenChar) for PS_GenChar
    as608.o(i.Add_FR) refers to delay.o(i.delay_ms) for delay_ms
    as608.o(i.Add_FR) refers to as608.o(i.ShowErrMessage) for ShowErrMessage
    as608.o(i.Add_FR) refers to as608.o(i.PS_Match) for PS_Match
    as608.o(i.Add_FR) refers to as608.o(i.PS_RegModel) for PS_RegModel
    as608.o(i.Add_FR) refers to as608.o(i.PS_StoreChar) for PS_StoreChar
    as608.o(i.Add_FR) refers to oled.o(i.OLED_ShowChar) for OLED_ShowChar
    as608.o(i.Add_FR) refers to oled.o(i.OLED_ShowNum) for OLED_ShowNum
    as608.o(i.Add_FR) refers to oled.o(i.OLED_Show_Await_Face) for OLED_Show_Await_Face
    as608.o(i.JudgeStr) refers to delay.o(i.delay_ms) for delay_ms
    as608.o(i.JudgeStr) refers to strstr.o(.text) for strstr
    as608.o(i.JudgeStr) refers to as608.o(.data) for AS608Addr
    as608.o(i.JudgeStr) refers to usart.o(.data) for USART3_RX_STA
    as608.o(i.JudgeStr) refers to usart.o(.bss) for USART3_RX_BUF
    as608.o(i.PS_DeletChar) refers to as608.o(i.SendHead) for SendHead
    as608.o(i.PS_DeletChar) refers to as608.o(i.SendAddr) for SendAddr
    as608.o(i.PS_DeletChar) refers to as608.o(i.SendFlag) for SendFlag
    as608.o(i.PS_DeletChar) refers to as608.o(i.SendLength) for SendLength
    as608.o(i.PS_DeletChar) refers to as608.o(i.Sendcmd) for Sendcmd
    as608.o(i.PS_DeletChar) refers to as608.o(i.MYUSART_SendData) for MYUSART_SendData
    as608.o(i.PS_DeletChar) refers to as608.o(i.SendCheck) for SendCheck
    as608.o(i.PS_DeletChar) refers to as608.o(i.JudgeStr) for JudgeStr
    as608.o(i.PS_Empty) refers to as608.o(i.SendHead) for SendHead
    as608.o(i.PS_Empty) refers to as608.o(i.SendAddr) for SendAddr
    as608.o(i.PS_Empty) refers to as608.o(i.SendFlag) for SendFlag
    as608.o(i.PS_Empty) refers to as608.o(i.SendLength) for SendLength
    as608.o(i.PS_Empty) refers to as608.o(i.Sendcmd) for Sendcmd
    as608.o(i.PS_Empty) refers to as608.o(i.SendCheck) for SendCheck
    as608.o(i.PS_Empty) refers to as608.o(i.JudgeStr) for JudgeStr
    as608.o(i.PS_GenChar) refers to as608.o(i.SendHead) for SendHead
    as608.o(i.PS_GenChar) refers to as608.o(i.SendAddr) for SendAddr
    as608.o(i.PS_GenChar) refers to as608.o(i.SendFlag) for SendFlag
    as608.o(i.PS_GenChar) refers to as608.o(i.SendLength) for SendLength
    as608.o(i.PS_GenChar) refers to as608.o(i.Sendcmd) for Sendcmd
    as608.o(i.PS_GenChar) refers to as608.o(i.MYUSART_SendData) for MYUSART_SendData
    as608.o(i.PS_GenChar) refers to as608.o(i.SendCheck) for SendCheck
    as608.o(i.PS_GenChar) refers to as608.o(i.JudgeStr) for JudgeStr
    as608.o(i.PS_GetImage) refers to as608.o(i.SendHead) for SendHead
    as608.o(i.PS_GetImage) refers to as608.o(i.SendAddr) for SendAddr
    as608.o(i.PS_GetImage) refers to as608.o(i.SendFlag) for SendFlag
    as608.o(i.PS_GetImage) refers to as608.o(i.SendLength) for SendLength
    as608.o(i.PS_GetImage) refers to as608.o(i.Sendcmd) for Sendcmd
    as608.o(i.PS_GetImage) refers to as608.o(i.SendCheck) for SendCheck
    as608.o(i.PS_GetImage) refers to as608.o(i.JudgeStr) for JudgeStr
    as608.o(i.PS_HandShake) refers to as608.o(i.SendHead) for SendHead
    as608.o(i.PS_HandShake) refers to as608.o(i.SendAddr) for SendAddr
    as608.o(i.PS_HandShake) refers to as608.o(i.MYUSART_SendData) for MYUSART_SendData
    as608.o(i.PS_HandShake) refers to delay.o(i.delay_ms) for delay_ms
    as608.o(i.PS_HandShake) refers to usart.o(.data) for USART3_RX_STA
    as608.o(i.PS_HandShake) refers to usart.o(.bss) for USART3_RX_BUF
    as608.o(i.PS_HighSpeedSearch) refers to as608.o(i.SendHead) for SendHead
    as608.o(i.PS_HighSpeedSearch) refers to as608.o(i.SendAddr) for SendAddr
    as608.o(i.PS_HighSpeedSearch) refers to as608.o(i.SendFlag) for SendFlag
    as608.o(i.PS_HighSpeedSearch) refers to as608.o(i.SendLength) for SendLength
    as608.o(i.PS_HighSpeedSearch) refers to as608.o(i.Sendcmd) for Sendcmd
    as608.o(i.PS_HighSpeedSearch) refers to as608.o(i.MYUSART_SendData) for MYUSART_SendData
    as608.o(i.PS_HighSpeedSearch) refers to as608.o(i.SendCheck) for SendCheck
    as608.o(i.PS_HighSpeedSearch) refers to as608.o(i.JudgeStr) for JudgeStr
    as608.o(i.PS_Match) refers to as608.o(i.SendHead) for SendHead
    as608.o(i.PS_Match) refers to as608.o(i.SendAddr) for SendAddr
    as608.o(i.PS_Match) refers to as608.o(i.SendFlag) for SendFlag
    as608.o(i.PS_Match) refers to as608.o(i.SendLength) for SendLength
    as608.o(i.PS_Match) refers to as608.o(i.Sendcmd) for Sendcmd
    as608.o(i.PS_Match) refers to as608.o(i.SendCheck) for SendCheck
    as608.o(i.PS_Match) refers to as608.o(i.JudgeStr) for JudgeStr
    as608.o(i.PS_ReadNotepad) refers to as608.o(i.SendHead) for SendHead
    as608.o(i.PS_ReadNotepad) refers to as608.o(i.SendAddr) for SendAddr
    as608.o(i.PS_ReadNotepad) refers to as608.o(i.SendFlag) for SendFlag
    as608.o(i.PS_ReadNotepad) refers to as608.o(i.SendLength) for SendLength
    as608.o(i.PS_ReadNotepad) refers to as608.o(i.Sendcmd) for Sendcmd
    as608.o(i.PS_ReadNotepad) refers to as608.o(i.MYUSART_SendData) for MYUSART_SendData
    as608.o(i.PS_ReadNotepad) refers to as608.o(i.SendCheck) for SendCheck
    as608.o(i.PS_ReadNotepad) refers to as608.o(i.JudgeStr) for JudgeStr
    as608.o(i.PS_ReadSysPara) refers to _printf_percent.o(.ARM.Collect$$_printf_percent$$00000000) for _printf_percent
    as608.o(i.PS_ReadSysPara) refers to _printf_d.o(.ARM.Collect$$_printf_percent$$00000009) for _printf_d
    as608.o(i.PS_ReadSysPara) refers to _printf_dec.o(.text) for _printf_int_dec
    as608.o(i.PS_ReadSysPara) refers to _printf_x.o(.ARM.Collect$$_printf_percent$$0000000C) for _printf_x
    as608.o(i.PS_ReadSysPara) refers to _printf_hex_int_ll_ptr.o(.text) for _printf_longlong_hex
    as608.o(i.PS_ReadSysPara) refers to _printf_s.o(.ARM.Collect$$_printf_percent$$00000014) for _printf_s
    as608.o(i.PS_ReadSysPara) refers to _printf_str.o(.text) for _printf_str
    as608.o(i.PS_ReadSysPara) refers to as608.o(i.SendHead) for SendHead
    as608.o(i.PS_ReadSysPara) refers to as608.o(i.SendAddr) for SendAddr
    as608.o(i.PS_ReadSysPara) refers to as608.o(i.SendFlag) for SendFlag
    as608.o(i.PS_ReadSysPara) refers to as608.o(i.SendLength) for SendLength
    as608.o(i.PS_ReadSysPara) refers to as608.o(i.Sendcmd) for Sendcmd
    as608.o(i.PS_ReadSysPara) refers to as608.o(i.SendCheck) for SendCheck
    as608.o(i.PS_ReadSysPara) refers to as608.o(i.JudgeStr) for JudgeStr
    as608.o(i.PS_ReadSysPara) refers to __2printf.o(.text) for __2printf
    as608.o(i.PS_ReadSysPara) refers to as608.o(i.EnsureMessage) for EnsureMessage
    as608.o(i.PS_RegModel) refers to as608.o(i.SendHead) for SendHead
    as608.o(i.PS_RegModel) refers to as608.o(i.SendAddr) for SendAddr
    as608.o(i.PS_RegModel) refers to as608.o(i.SendFlag) for SendFlag
    as608.o(i.PS_RegModel) refers to as608.o(i.SendLength) for SendLength
    as608.o(i.PS_RegModel) refers to as608.o(i.Sendcmd) for Sendcmd
    as608.o(i.PS_RegModel) refers to as608.o(i.SendCheck) for SendCheck
    as608.o(i.PS_RegModel) refers to as608.o(i.JudgeStr) for JudgeStr
    as608.o(i.PS_Search) refers to as608.o(i.SendHead) for SendHead
    as608.o(i.PS_Search) refers to as608.o(i.SendAddr) for SendAddr
    as608.o(i.PS_Search) refers to as608.o(i.SendFlag) for SendFlag
    as608.o(i.PS_Search) refers to as608.o(i.SendLength) for SendLength
    as608.o(i.PS_Search) refers to as608.o(i.Sendcmd) for Sendcmd
    as608.o(i.PS_Search) refers to as608.o(i.MYUSART_SendData) for MYUSART_SendData
    as608.o(i.PS_Search) refers to as608.o(i.SendCheck) for SendCheck
    as608.o(i.PS_Search) refers to as608.o(i.JudgeStr) for JudgeStr
    as608.o(i.PS_SetAddr) refers to _printf_percent.o(.ARM.Collect$$_printf_percent$$00000000) for _printf_percent
    as608.o(i.PS_SetAddr) refers to _printf_s.o(.ARM.Collect$$_printf_percent$$00000014) for _printf_s
    as608.o(i.PS_SetAddr) refers to _printf_str.o(.text) for _printf_str
    as608.o(i.PS_SetAddr) refers to as608.o(i.SendHead) for SendHead
    as608.o(i.PS_SetAddr) refers to as608.o(i.SendAddr) for SendAddr
    as608.o(i.PS_SetAddr) refers to as608.o(i.SendFlag) for SendFlag
    as608.o(i.PS_SetAddr) refers to as608.o(i.SendLength) for SendLength
    as608.o(i.PS_SetAddr) refers to as608.o(i.Sendcmd) for Sendcmd
    as608.o(i.PS_SetAddr) refers to as608.o(i.MYUSART_SendData) for MYUSART_SendData
    as608.o(i.PS_SetAddr) refers to as608.o(i.SendCheck) for SendCheck
    as608.o(i.PS_SetAddr) refers to as608.o(i.JudgeStr) for JudgeStr
    as608.o(i.PS_SetAddr) refers to __2printf.o(.text) for __2printf
    as608.o(i.PS_SetAddr) refers to as608.o(i.EnsureMessage) for EnsureMessage
    as608.o(i.PS_SetAddr) refers to as608.o(.data) for AS608Addr
    as608.o(i.PS_StoreChar) refers to as608.o(i.SendHead) for SendHead
    as608.o(i.PS_StoreChar) refers to as608.o(i.SendAddr) for SendAddr
    as608.o(i.PS_StoreChar) refers to as608.o(i.SendFlag) for SendFlag
    as608.o(i.PS_StoreChar) refers to as608.o(i.SendLength) for SendLength
    as608.o(i.PS_StoreChar) refers to as608.o(i.Sendcmd) for Sendcmd
    as608.o(i.PS_StoreChar) refers to as608.o(i.MYUSART_SendData) for MYUSART_SendData
    as608.o(i.PS_StoreChar) refers to as608.o(i.SendCheck) for SendCheck
    as608.o(i.PS_StoreChar) refers to as608.o(i.JudgeStr) for JudgeStr
    as608.o(i.PS_ValidTempleteNum) refers to _printf_percent.o(.ARM.Collect$$_printf_percent$$00000000) for _printf_percent
    as608.o(i.PS_ValidTempleteNum) refers to _printf_d.o(.ARM.Collect$$_printf_percent$$00000009) for _printf_d
    as608.o(i.PS_ValidTempleteNum) refers to _printf_dec.o(.text) for _printf_int_dec
    as608.o(i.PS_ValidTempleteNum) refers to _printf_s.o(.ARM.Collect$$_printf_percent$$00000014) for _printf_s
    as608.o(i.PS_ValidTempleteNum) refers to _printf_str.o(.text) for _printf_str
    as608.o(i.PS_ValidTempleteNum) refers to as608.o(i.SendHead) for SendHead
    as608.o(i.PS_ValidTempleteNum) refers to as608.o(i.SendAddr) for SendAddr
    as608.o(i.PS_ValidTempleteNum) refers to as608.o(i.SendFlag) for SendFlag
    as608.o(i.PS_ValidTempleteNum) refers to as608.o(i.SendLength) for SendLength
    as608.o(i.PS_ValidTempleteNum) refers to as608.o(i.Sendcmd) for Sendcmd
    as608.o(i.PS_ValidTempleteNum) refers to as608.o(i.SendCheck) for SendCheck
    as608.o(i.PS_ValidTempleteNum) refers to as608.o(i.JudgeStr) for JudgeStr
    as608.o(i.PS_ValidTempleteNum) refers to __2printf.o(.text) for __2printf
    as608.o(i.PS_ValidTempleteNum) refers to as608.o(i.EnsureMessage) for EnsureMessage
    as608.o(i.PS_WriteNotepad) refers to as608.o(i.SendHead) for SendHead
    as608.o(i.PS_WriteNotepad) refers to as608.o(i.SendAddr) for SendAddr
    as608.o(i.PS_WriteNotepad) refers to as608.o(i.SendFlag) for SendFlag
    as608.o(i.PS_WriteNotepad) refers to as608.o(i.SendLength) for SendLength
    as608.o(i.PS_WriteNotepad) refers to as608.o(i.Sendcmd) for Sendcmd
    as608.o(i.PS_WriteNotepad) refers to as608.o(i.MYUSART_SendData) for MYUSART_SendData
    as608.o(i.PS_WriteNotepad) refers to as608.o(i.SendCheck) for SendCheck
    as608.o(i.PS_WriteNotepad) refers to as608.o(i.JudgeStr) for JudgeStr
    as608.o(i.PS_WriteReg) refers to _printf_percent.o(.ARM.Collect$$_printf_percent$$00000000) for _printf_percent
    as608.o(i.PS_WriteReg) refers to _printf_s.o(.ARM.Collect$$_printf_percent$$00000014) for _printf_s
    as608.o(i.PS_WriteReg) refers to _printf_str.o(.text) for _printf_str
    as608.o(i.PS_WriteReg) refers to as608.o(i.SendHead) for SendHead
    as608.o(i.PS_WriteReg) refers to as608.o(i.SendAddr) for SendAddr
    as608.o(i.PS_WriteReg) refers to as608.o(i.SendFlag) for SendFlag
    as608.o(i.PS_WriteReg) refers to as608.o(i.SendLength) for SendLength
    as608.o(i.PS_WriteReg) refers to as608.o(i.Sendcmd) for Sendcmd
    as608.o(i.PS_WriteReg) refers to as608.o(i.MYUSART_SendData) for MYUSART_SendData
    as608.o(i.PS_WriteReg) refers to as608.o(i.SendCheck) for SendCheck
    as608.o(i.PS_WriteReg) refers to as608.o(i.JudgeStr) for JudgeStr
    as608.o(i.PS_WriteReg) refers to __2printf.o(.text) for __2printf
    as608.o(i.PS_WriteReg) refers to as608.o(i.EnsureMessage) for EnsureMessage
    as608.o(i.SendAddr) refers to as608.o(i.MYUSART_SendData) for MYUSART_SendData
    as608.o(i.SendAddr) refers to as608.o(.data) for AS608Addr
    as608.o(i.SendCheck) refers to as608.o(i.MYUSART_SendData) for MYUSART_SendData
    as608.o(i.SendFlag) refers to as608.o(i.MYUSART_SendData) for MYUSART_SendData
    as608.o(i.SendHead) refers to as608.o(i.MYUSART_SendData) for MYUSART_SendData
    as608.o(i.SendLength) refers to as608.o(i.MYUSART_SendData) for MYUSART_SendData
    as608.o(i.Sendcmd) refers to as608.o(i.MYUSART_SendData) for MYUSART_SendData
    as608.o(i.ShowErrMessage) refers to as608.o(i.EnsureMessage) for EnsureMessage
    as608.o(i.ShowErrMessage) refers to usart.o(i.UsartPrintf) for UsartPrintf
    as608.o(i.press_FR) refers to _printf_percent.o(.ARM.Collect$$_printf_percent$$00000000) for _printf_percent
    as608.o(i.press_FR) refers to _printf_d.o(.ARM.Collect$$_printf_percent$$00000009) for _printf_d
    as608.o(i.press_FR) refers to _printf_dec.o(.text) for _printf_int_dec
    as608.o(i.press_FR) refers to oled.o(i.OLED_Clear) for OLED_Clear
    as608.o(i.press_FR) refers to oled.o(i.OLED_ShowChinese) for OLED_ShowChinese
    as608.o(i.press_FR) refers to oled.o(i.OLED_Refresh) for OLED_Refresh
    as608.o(i.press_FR) refers to as608.o(i.PS_GetImage) for PS_GetImage
    as608.o(i.press_FR) refers to as608.o(i.PS_GenChar) for PS_GenChar
    as608.o(i.press_FR) refers to as608.o(i.PS_HighSpeedSearch) for PS_HighSpeedSearch
    as608.o(i.press_FR) refers to usart.o(i.UsartPrintf) for UsartPrintf
    as608.o(i.press_FR) refers to __2sprintf.o(.text) for __2sprintf
    as608.o(i.press_FR) refers to oled.o(i.OLED_ShowChar) for OLED_ShowChar
    as608.o(i.press_FR) refers to oled.o(i.OLED_ShowNum) for OLED_ShowNum
    as608.o(i.press_FR) refers to delay.o(i.delay_ms) for delay_ms
    as608.o(i.press_FR) refers to main.o(.data) for user_flag
    iic2.o(i.SMBus_Init) refers to stm32f10x_rcc.o(i.RCC_APB2PeriphClockCmd) for RCC_APB2PeriphClockCmd
    iic2.o(i.SMBus_Init) refers to stm32f10x_gpio.o(i.GPIO_Init) for GPIO_Init
    iic2.o(i.SMBus_ReadMemory) refers to iic2.o(i.SMBus_StopBit) for SMBus_StopBit
    iic2.o(i.SMBus_ReadMemory) refers to iic2.o(i.SMBus_StartBit) for SMBus_StartBit
    iic2.o(i.SMBus_ReadMemory) refers to iic2.o(i.SMBus_SendByte) for SMBus_SendByte
    iic2.o(i.SMBus_ReadMemory) refers to iic2.o(i.SMBus_ReceiveByte) for SMBus_ReceiveByte
    iic2.o(i.SMBus_ReadMemory) refers to iic2.o(i.PEC_Calculation) for PEC_Calculation
    iic2.o(i.SMBus_ReadTemp) refers to iic2.o(i.SMBus_ReadMemory) for SMBus_ReadMemory
    iic2.o(i.SMBus_ReadTemp) refers to dflt_clz.o(x$fpl$dfltu) for __aeabi_ui2d
    iic2.o(i.SMBus_ReadTemp) refers to dmul.o(x$fpl$dmul) for __aeabi_dmul
    iic2.o(i.SMBus_ReadTemp) refers to daddsub_clz.o(x$fpl$dsub) for __aeabi_dsub
    iic2.o(i.SMBus_ReadTemp) refers to d2f.o(x$fpl$d2f) for __aeabi_d2f
    iic2.o(i.SMBus_ReceiveBit) refers to iic2.o(i.SMBus_Delay) for SMBus_Delay
    iic2.o(i.SMBus_ReceiveByte) refers to iic2.o(i.SMBus_ReceiveBit) for SMBus_ReceiveBit
    iic2.o(i.SMBus_ReceiveByte) refers to iic2.o(i.SMBus_SendBit) for SMBus_SendBit
    iic2.o(i.SMBus_SendBit) refers to iic2.o(i.SMBus_Delay) for SMBus_Delay
    iic2.o(i.SMBus_SendByte) refers to iic2.o(i.SMBus_SendBit) for SMBus_SendBit
    iic2.o(i.SMBus_SendByte) refers to iic2.o(i.SMBus_ReceiveBit) for SMBus_ReceiveBit
    iic2.o(i.SMBus_StartBit) refers to iic2.o(i.SMBus_Delay) for SMBus_Delay
    iic2.o(i.SMBus_StopBit) refers to iic2.o(i.SMBus_Delay) for SMBus_Delay
    startup_stm32f10x_hd.o(STACK) refers (Special) to heapauxi.o(.text) for __use_two_region_memory
    startup_stm32f10x_hd.o(HEAP) refers (Special) to heapauxi.o(.text) for __use_two_region_memory
    startup_stm32f10x_hd.o(RESET) refers (Special) to heapauxi.o(.text) for __use_two_region_memory
    startup_stm32f10x_hd.o(RESET) refers to startup_stm32f10x_hd.o(STACK) for __initial_sp
    startup_stm32f10x_hd.o(RESET) refers to startup_stm32f10x_hd.o(.text) for Reset_Handler
    startup_stm32f10x_hd.o(RESET) refers to stm32f10x_it.o(i.NMI_Handler) for NMI_Handler
    startup_stm32f10x_hd.o(RESET) refers to stm32f10x_it.o(i.HardFault_Handler) for HardFault_Handler
    startup_stm32f10x_hd.o(RESET) refers to stm32f10x_it.o(i.MemManage_Handler) for MemManage_Handler
    startup_stm32f10x_hd.o(RESET) refers to stm32f10x_it.o(i.BusFault_Handler) for BusFault_Handler
    startup_stm32f10x_hd.o(RESET) refers to stm32f10x_it.o(i.UsageFault_Handler) for UsageFault_Handler
    startup_stm32f10x_hd.o(RESET) refers to stm32f10x_it.o(i.SVC_Handler) for SVC_Handler
    startup_stm32f10x_hd.o(RESET) refers to stm32f10x_it.o(i.DebugMon_Handler) for DebugMon_Handler
    startup_stm32f10x_hd.o(RESET) refers to stm32f10x_it.o(i.PendSV_Handler) for PendSV_Handler
    startup_stm32f10x_hd.o(RESET) refers to stm32f10x_it.o(i.SysTick_Handler) for SysTick_Handler
    startup_stm32f10x_hd.o(RESET) refers to timer.o(i.TIM2_IRQHandler) for TIM2_IRQHandler
    startup_stm32f10x_hd.o(RESET) refers to timer.o(i.TIM3_IRQHandler) for TIM3_IRQHandler
    startup_stm32f10x_hd.o(RESET) refers to usart.o(i.USART1_IRQHandler) for USART1_IRQHandler
    startup_stm32f10x_hd.o(RESET) refers to esp8266.o(i.USART2_IRQHandler) for USART2_IRQHandler
    startup_stm32f10x_hd.o(RESET) refers to usart.o(i.UART4_IRQHandler) for UART4_IRQHandler
    startup_stm32f10x_hd.o(RESET) refers to timer.o(i.TIM7_IRQHandler) for TIM7_IRQHandler
    startup_stm32f10x_hd.o(.text) refers (Special) to heapauxi.o(.text) for __use_two_region_memory
    startup_stm32f10x_hd.o(.text) refers to system_stm32f10x.o(i.SystemInit) for SystemInit
    startup_stm32f10x_hd.o(.text) refers to __main.o(!!!main) for __main
    startup_stm32f10x_hd.o(.text) refers to startup_stm32f10x_hd.o(HEAP) for Heap_Mem
    startup_stm32f10x_hd.o(.text) refers to startup_stm32f10x_hd.o(STACK) for Stack_Mem
    esp8266.o(i.ESP8266_Clear) refers to rt_memclr.o(.text) for __aeabi_memclr
    esp8266.o(i.ESP8266_Clear) refers to esp8266.o(.bss) for esp8266_buf
    esp8266.o(i.ESP8266_Clear) refers to esp8266.o(.data) for esp8266_cnt
    esp8266.o(i.ESP8266_GetIPD) refers to esp8266.o(i.ESP8266_WaitRecive) for ESP8266_WaitRecive
    esp8266.o(i.ESP8266_GetIPD) refers to strstr.o(.text) for strstr
    esp8266.o(i.ESP8266_GetIPD) refers to strchr.o(.text) for strchr
    esp8266.o(i.ESP8266_GetIPD) refers to delay.o(i.delay_ms) for delay_ms
    esp8266.o(i.ESP8266_GetIPD) refers to esp8266.o(.bss) for esp8266_buf
    esp8266.o(i.ESP8266_Init) refers to usart.o(i.UsartPrintf) for UsartPrintf
    esp8266.o(i.ESP8266_Init) refers to esp8266.o(i.ESP8266_Clear) for ESP8266_Clear
    esp8266.o(i.ESP8266_Init) refers to delay.o(i.delay_ms) for delay_ms
    esp8266.o(i.ESP8266_Init) refers to esp8266.o(i.ESP8266_SendCmd) for ESP8266_SendCmd
    esp8266.o(i.ESP8266_SendCmd) refers to strlen.o(.text) for strlen
    esp8266.o(i.ESP8266_SendCmd) refers to usart.o(i.Usart_SendString) for Usart_SendString
    esp8266.o(i.ESP8266_SendCmd) refers to esp8266.o(i.ESP8266_WaitRecive) for ESP8266_WaitRecive
    esp8266.o(i.ESP8266_SendCmd) refers to strstr.o(.text) for strstr
    esp8266.o(i.ESP8266_SendCmd) refers to esp8266.o(i.ESP8266_Clear) for ESP8266_Clear
    esp8266.o(i.ESP8266_SendCmd) refers to delay.o(i.delay_ms) for delay_ms
    esp8266.o(i.ESP8266_SendCmd) refers to esp8266.o(.bss) for esp8266_buf
    esp8266.o(i.ESP8266_SendData) refers to _printf_percent.o(.ARM.Collect$$_printf_percent$$00000000) for _printf_percent
    esp8266.o(i.ESP8266_SendData) refers to _printf_d.o(.ARM.Collect$$_printf_percent$$00000009) for _printf_d
    esp8266.o(i.ESP8266_SendData) refers to _printf_dec.o(.text) for _printf_int_dec
    esp8266.o(i.ESP8266_SendData) refers to esp8266.o(i.ESP8266_Clear) for ESP8266_Clear
    esp8266.o(i.ESP8266_SendData) refers to __2sprintf.o(.text) for __2sprintf
    esp8266.o(i.ESP8266_SendData) refers to esp8266.o(i.ESP8266_SendCmd) for ESP8266_SendCmd
    esp8266.o(i.ESP8266_SendData) refers to usart.o(i.Usart_SendString) for Usart_SendString
    esp8266.o(i.ESP8266_WaitRecive) refers to esp8266.o(.data) for esp8266_cnt
    esp8266.o(i.USART2_IRQHandler) refers to stm32f10x_usart.o(i.USART_GetITStatus) for USART_GetITStatus
    esp8266.o(i.USART2_IRQHandler) refers to stm32f10x_usart.o(i.USART_ClearFlag) for USART_ClearFlag
    esp8266.o(i.USART2_IRQHandler) refers to esp8266.o(.data) for esp8266_cnt
    esp8266.o(i.USART2_IRQHandler) refers to esp8266.o(.bss) for esp8266_buf
    mqttkit.o(i.MQTT_DeleteBuffer) refers to h1_free.o(.text) for free
    mqttkit.o(i.MQTT_NewBuffer) refers to h1_alloc.o(.text) for malloc
    mqttkit.o(i.MQTT_PacketCmdResp) refers to strlen.o(.text) for strlen
    mqttkit.o(i.MQTT_PacketCmdResp) refers to h1_alloc.o(.text) for malloc
    mqttkit.o(i.MQTT_PacketCmdResp) refers to rt_memclr.o(.text) for __aeabi_memclr
    mqttkit.o(i.MQTT_PacketCmdResp) refers to strncat.o(.text) for strncat
    mqttkit.o(i.MQTT_PacketCmdResp) refers to mqttkit.o(i.MQTT_PacketPublish) for MQTT_PacketPublish
    mqttkit.o(i.MQTT_PacketCmdResp) refers to h1_free.o(.text) for free
    mqttkit.o(i.MQTT_PacketConnect) refers to strlen.o(.text) for strlen
    mqttkit.o(i.MQTT_PacketConnect) refers to mqttkit.o(i.MQTT_NewBuffer) for MQTT_NewBuffer
    mqttkit.o(i.MQTT_PacketConnect) refers to rt_memclr.o(.text) for __aeabi_memclr
    mqttkit.o(i.MQTT_PacketConnect) refers to mqttkit.o(i.MQTT_DumpLength) for MQTT_DumpLength
    mqttkit.o(i.MQTT_PacketConnect) refers to mqttkit.o(i.MQTT_DeleteBuffer) for MQTT_DeleteBuffer
    mqttkit.o(i.MQTT_PacketConnect) refers to strncat.o(.text) for strncat
    mqttkit.o(i.MQTT_PacketDisConnect) refers to mqttkit.o(i.MQTT_NewBuffer) for MQTT_NewBuffer
    mqttkit.o(i.MQTT_PacketPing) refers to mqttkit.o(i.MQTT_NewBuffer) for MQTT_NewBuffer
    mqttkit.o(i.MQTT_PacketPublish) refers to mqttkit.o(i.MQTT_NewBuffer) for MQTT_NewBuffer
    mqttkit.o(i.MQTT_PacketPublish) refers to rt_memclr.o(.text) for __aeabi_memclr
    mqttkit.o(i.MQTT_PacketPublish) refers to mqttkit.o(i.MQTT_DumpLength) for MQTT_DumpLength
    mqttkit.o(i.MQTT_PacketPublish) refers to mqttkit.o(i.MQTT_DeleteBuffer) for MQTT_DeleteBuffer
    mqttkit.o(i.MQTT_PacketPublish) refers to strncat.o(.text) for strncat
    mqttkit.o(i.MQTT_PacketPublish) refers to rt_memcpy_v6.o(.text) for __aeabi_memcpy
    mqttkit.o(i.MQTT_PacketPublishAck) refers to mqttkit.o(i.MQTT_NewBuffer) for MQTT_NewBuffer
    mqttkit.o(i.MQTT_PacketPublishComp) refers to mqttkit.o(i.MQTT_NewBuffer) for MQTT_NewBuffer
    mqttkit.o(i.MQTT_PacketPublishRec) refers to mqttkit.o(i.MQTT_NewBuffer) for MQTT_NewBuffer
    mqttkit.o(i.MQTT_PacketPublishRel) refers to mqttkit.o(i.MQTT_NewBuffer) for MQTT_NewBuffer
    mqttkit.o(i.MQTT_PacketSaveBinData) refers to _printf_percent.o(.ARM.Collect$$_printf_percent$$00000000) for _printf_percent
    mqttkit.o(i.MQTT_PacketSaveBinData) refers to _printf_s.o(.ARM.Collect$$_printf_percent$$00000014) for _printf_s
    mqttkit.o(i.MQTT_PacketSaveBinData) refers to _printf_str.o(.text) for _printf_str
    mqttkit.o(i.MQTT_PacketSaveBinData) refers to strlen.o(.text) for strlen
    mqttkit.o(i.MQTT_PacketSaveBinData) refers to h1_alloc.o(.text) for malloc
    mqttkit.o(i.MQTT_PacketSaveBinData) refers to __2sprintf.o(.text) for __2sprintf
    mqttkit.o(i.MQTT_PacketSaveBinData) refers to h1_free.o(.text) for free
    mqttkit.o(i.MQTT_PacketSaveBinData) refers to rt_memcpy_v6.o(.text) for __aeabi_memcpy
    mqttkit.o(i.MQTT_PacketSaveBinData) refers to mqttkit.o(i.MQTT_PacketPublish) for MQTT_PacketPublish
    mqttkit.o(i.MQTT_PacketSaveData) refers to mqttkit.o(i.MQTT_PacketPublish) for MQTT_PacketPublish
    mqttkit.o(i.MQTT_PacketSubscribe) refers to strlen.o(.text) for strlen
    mqttkit.o(i.MQTT_PacketSubscribe) refers to mqttkit.o(i.MQTT_NewBuffer) for MQTT_NewBuffer
    mqttkit.o(i.MQTT_PacketSubscribe) refers to mqttkit.o(i.MQTT_DumpLength) for MQTT_DumpLength
    mqttkit.o(i.MQTT_PacketSubscribe) refers to mqttkit.o(i.MQTT_DeleteBuffer) for MQTT_DeleteBuffer
    mqttkit.o(i.MQTT_PacketSubscribe) refers to strncat.o(.text) for strncat
    mqttkit.o(i.MQTT_PacketUnSubscribe) refers to strlen.o(.text) for strlen
    mqttkit.o(i.MQTT_PacketUnSubscribe) refers to mqttkit.o(i.MQTT_NewBuffer) for MQTT_NewBuffer
    mqttkit.o(i.MQTT_PacketUnSubscribe) refers to mqttkit.o(i.MQTT_DumpLength) for MQTT_DumpLength
    mqttkit.o(i.MQTT_PacketUnSubscribe) refers to mqttkit.o(i.MQTT_DeleteBuffer) for MQTT_DeleteBuffer
    mqttkit.o(i.MQTT_PacketUnSubscribe) refers to strncat.o(.text) for strncat
    mqttkit.o(i.MQTT_UnPacketCmd) refers to strchr.o(.text) for strchr
    mqttkit.o(i.MQTT_UnPacketCmd) refers to mqttkit.o(i.MQTT_ReadLength) for MQTT_ReadLength
    mqttkit.o(i.MQTT_UnPacketCmd) refers to h1_alloc.o(.text) for malloc
    mqttkit.o(i.MQTT_UnPacketCmd) refers to rt_memclr.o(.text) for __aeabi_memclr
    mqttkit.o(i.MQTT_UnPacketCmd) refers to rt_memcpy_v6.o(.text) for __aeabi_memcpy
    mqttkit.o(i.MQTT_UnPacketCmd) refers to h1_free.o(.text) for free
    mqttkit.o(i.MQTT_UnPacketPublish) refers to mqttkit.o(i.MQTT_ReadLength) for MQTT_ReadLength
    mqttkit.o(i.MQTT_UnPacketPublish) refers to strstr.o(.text) for strstr
    mqttkit.o(i.MQTT_UnPacketPublish) refers to h1_alloc.o(.text) for malloc
    mqttkit.o(i.MQTT_UnPacketPublish) refers to rt_memclr.o(.text) for __aeabi_memclr
    mqttkit.o(i.MQTT_UnPacketPublish) refers to rt_memcpy_v6.o(.text) for __aeabi_memcpy
    mqttkit.o(i.MQTT_UnPacketPublish) refers to h1_free.o(.text) for free
    mqttkit.o(i.MQTT_UnPacketPublish) refers to strchr.o(.text) for strchr
    mqttkit.o(i.MQTT_UnPacketRecv) refers to mqttkit.o(i.MQTT_ReadLength) for MQTT_ReadLength
    mqttkit.o(i.MQTT_UnPacketRecv) refers to strstr.o(.text) for strstr
    onenet.o(i.OneNet_DevLink) refers to usart.o(i.UsartPrintf) for UsartPrintf
    onenet.o(i.OneNet_DevLink) refers to mqttkit.o(i.MQTT_PacketConnect) for MQTT_PacketConnect
    onenet.o(i.OneNet_DevLink) refers to esp8266.o(i.ESP8266_SendData) for ESP8266_SendData
    onenet.o(i.OneNet_DevLink) refers to esp8266.o(i.ESP8266_GetIPD) for ESP8266_GetIPD
    onenet.o(i.OneNet_DevLink) refers to mqttkit.o(i.MQTT_UnPacketRecv) for MQTT_UnPacketRecv
    onenet.o(i.OneNet_DevLink) refers to mqttkit.o(i.MQTT_UnPacketConnectAck) for MQTT_UnPacketConnectAck
    onenet.o(i.OneNet_DevLink) refers to mqttkit.o(i.MQTT_DeleteBuffer) for MQTT_DeleteBuffer
    onenet.o(i.OneNet_Publish) refers to usart.o(i.UsartPrintf) for UsartPrintf
    onenet.o(i.OneNet_Publish) refers to strlen.o(.text) for strlen
    onenet.o(i.OneNet_Publish) refers to mqttkit.o(i.MQTT_PacketPublish) for MQTT_PacketPublish
    onenet.o(i.OneNet_Publish) refers to esp8266.o(i.ESP8266_SendData) for ESP8266_SendData
    onenet.o(i.OneNet_Publish) refers to mqttkit.o(i.MQTT_DeleteBuffer) for MQTT_DeleteBuffer
    onenet.o(i.OneNet_RevPro) refers to _printf_percent.o(.ARM.Collect$$_printf_percent$$00000000) for _printf_percent
    onenet.o(i.OneNet_RevPro) refers to _printf_d.o(.ARM.Collect$$_printf_percent$$00000009) for _printf_d
    onenet.o(i.OneNet_RevPro) refers to _printf_s.o(.ARM.Collect$$_printf_percent$$00000014) for _printf_s
    onenet.o(i.OneNet_RevPro) refers to _printf_dec.o(.text) for _printf_int_dec
    onenet.o(i.OneNet_RevPro) refers to _printf_str.o(.text) for _printf_str
    onenet.o(i.OneNet_RevPro) refers to mqttkit.o(i.MQTT_UnPacketRecv) for MQTT_UnPacketRecv
    onenet.o(i.OneNet_RevPro) refers to mqttkit.o(i.MQTT_UnPacketCmd) for MQTT_UnPacketCmd
    onenet.o(i.OneNet_RevPro) refers to usart.o(i.UsartPrintf) for UsartPrintf
    onenet.o(i.OneNet_RevPro) refers to mqttkit.o(i.MQTT_PacketCmdResp) for MQTT_PacketCmdResp
    onenet.o(i.OneNet_RevPro) refers to esp8266.o(i.ESP8266_SendData) for ESP8266_SendData
    onenet.o(i.OneNet_RevPro) refers to mqttkit.o(i.MQTT_DeleteBuffer) for MQTT_DeleteBuffer
    onenet.o(i.OneNet_RevPro) refers to mqttkit.o(i.MQTT_UnPacketPublish) for MQTT_UnPacketPublish
    onenet.o(i.OneNet_RevPro) refers to cjson.o(i.cJSON_Parse) for cJSON_Parse
    onenet.o(i.OneNet_RevPro) refers to cjson.o(i.cJSON_GetErrorPtr) for cJSON_GetErrorPtr
    onenet.o(i.OneNet_RevPro) refers to cjson.o(i.cJSON_GetObjectItem) for cJSON_GetObjectItem
    onenet.o(i.OneNet_RevPro) refers to as608.o(i.Add_FR) for Add_FR
    onenet.o(i.OneNet_RevPro) refers to __2sprintf.o(.text) for __2sprintf
    onenet.o(i.OneNet_RevPro) refers to onenet.o(i.OneNet_Publish) for OneNet_Publish
    onenet.o(i.OneNet_RevPro) refers to esp8266.o(i.ESP8266_Clear) for ESP8266_Clear
    onenet.o(i.OneNet_RevPro) refers to cjson.o(i.cJSON_Delete) for cJSON_Delete
    onenet.o(i.OneNet_RevPro) refers to mqttkit.o(i.MQTT_PacketPublishAck) for MQTT_PacketPublishAck
    onenet.o(i.OneNet_RevPro) refers to mqttkit.o(i.MQTT_PacketPublishRec) for MQTT_PacketPublishRec
    onenet.o(i.OneNet_RevPro) refers to mqttkit.o(i.MQTT_UnPacketPublishAck) for MQTT_UnPacketPublishAck
    onenet.o(i.OneNet_RevPro) refers to mqttkit.o(i.MQTT_UnPacketPublishRec) for MQTT_UnPacketPublishRec
    onenet.o(i.OneNet_RevPro) refers to mqttkit.o(i.MQTT_PacketPublishRel) for MQTT_PacketPublishRel
    onenet.o(i.OneNet_RevPro) refers to mqttkit.o(i.MQTT_UnPacketPublishRel) for MQTT_UnPacketPublishRel
    onenet.o(i.OneNet_RevPro) refers to mqttkit.o(i.MQTT_PacketPublishComp) for MQTT_PacketPublishComp
    onenet.o(i.OneNet_RevPro) refers to mqttkit.o(i.MQTT_UnPacketPublishComp) for MQTT_UnPacketPublishComp
    onenet.o(i.OneNet_RevPro) refers to mqttkit.o(i.MQTT_UnPacketSubscribe) for MQTT_UnPacketSubscribe
    onenet.o(i.OneNet_RevPro) refers to mqttkit.o(i.MQTT_UnPacketUnSubscribe) for MQTT_UnPacketUnSubscribe
    onenet.o(i.OneNet_RevPro) refers to strchr.o(.text) for strchr
    onenet.o(i.OneNet_RevPro) refers to atoi.o(.text) for atoi
    onenet.o(i.OneNet_RevPro) refers to h1_free.o(.text) for free
    onenet.o(i.OneNet_RevPro) refers to onenet.o(.data) for pkt_id
    onenet.o(i.OneNet_RevPro) refers to main.o(.data) for deviceid
    onenet.o(i.OneNet_Subscribe) refers to usart.o(i.UsartPrintf) for UsartPrintf
    onenet.o(i.OneNet_Subscribe) refers to mqttkit.o(i.MQTT_PacketSubscribe) for MQTT_PacketSubscribe
    onenet.o(i.OneNet_Subscribe) refers to esp8266.o(i.ESP8266_SendData) for ESP8266_SendData
    onenet.o(i.OneNet_Subscribe) refers to mqttkit.o(i.MQTT_DeleteBuffer) for MQTT_DeleteBuffer
    onenet.o(.data) refers to onenet.o(.conststring) for .conststring
    cjson.o(i.cJSON_AddItemReferenceToArray) refers to cjson.o(i.create_reference) for create_reference
    cjson.o(i.cJSON_AddItemReferenceToArray) refers to cjson.o(i.cJSON_AddItemToArray) for cJSON_AddItemToArray
    cjson.o(i.cJSON_AddItemReferenceToObject) refers to cjson.o(i.create_reference) for create_reference
    cjson.o(i.cJSON_AddItemReferenceToObject) refers to cjson.o(i.cJSON_AddItemToObject) for cJSON_AddItemToObject
    cjson.o(i.cJSON_AddItemToArray) refers to cjson.o(i.suffix_object) for suffix_object
    cjson.o(i.cJSON_AddItemToObject) refers to cjson.o(i.cJSON_strdup) for cJSON_strdup
    cjson.o(i.cJSON_AddItemToObject) refers to cjson.o(i.cJSON_AddItemToArray) for cJSON_AddItemToArray
    cjson.o(i.cJSON_AddItemToObject) refers to cjson.o(.data) for cJSON_free
    cjson.o(i.cJSON_AddItemToObjectCS) refers to cjson.o(i.cJSON_AddItemToArray) for cJSON_AddItemToArray
    cjson.o(i.cJSON_AddItemToObjectCS) refers to cjson.o(.data) for cJSON_free
    cjson.o(i.cJSON_CreateArray) refers to cjson.o(i.cJSON_New_Item) for cJSON_New_Item
    cjson.o(i.cJSON_CreateBool) refers to cjson.o(i.cJSON_New_Item) for cJSON_New_Item
    cjson.o(i.cJSON_CreateDoubleArray) refers to cjson.o(i.cJSON_CreateArray) for cJSON_CreateArray
    cjson.o(i.cJSON_CreateDoubleArray) refers to cjson.o(i.cJSON_CreateNumber) for cJSON_CreateNumber
    cjson.o(i.cJSON_CreateDoubleArray) refers to cjson.o(i.suffix_object) for suffix_object
    cjson.o(i.cJSON_CreateFalse) refers to cjson.o(i.cJSON_New_Item) for cJSON_New_Item
    cjson.o(i.cJSON_CreateFloatArray) refers to cjson.o(i.cJSON_CreateArray) for cJSON_CreateArray
    cjson.o(i.cJSON_CreateFloatArray) refers to f2d.o(x$fpl$f2d) for __aeabi_f2d
    cjson.o(i.cJSON_CreateFloatArray) refers to cjson.o(i.cJSON_CreateNumber) for cJSON_CreateNumber
    cjson.o(i.cJSON_CreateFloatArray) refers to cjson.o(i.suffix_object) for suffix_object
    cjson.o(i.cJSON_CreateIntArray) refers to cjson.o(i.cJSON_CreateArray) for cJSON_CreateArray
    cjson.o(i.cJSON_CreateIntArray) refers to dflt_clz.o(x$fpl$dflt) for __aeabi_i2d
    cjson.o(i.cJSON_CreateIntArray) refers to cjson.o(i.cJSON_CreateNumber) for cJSON_CreateNumber
    cjson.o(i.cJSON_CreateIntArray) refers to cjson.o(i.suffix_object) for suffix_object
    cjson.o(i.cJSON_CreateNull) refers to cjson.o(i.cJSON_New_Item) for cJSON_New_Item
    cjson.o(i.cJSON_CreateNumber) refers to cjson.o(i.cJSON_New_Item) for cJSON_New_Item
    cjson.o(i.cJSON_CreateNumber) refers to dfix.o(x$fpl$dfix) for __aeabi_d2iz
    cjson.o(i.cJSON_CreateObject) refers to cjson.o(i.cJSON_New_Item) for cJSON_New_Item
    cjson.o(i.cJSON_CreateString) refers to cjson.o(i.cJSON_New_Item) for cJSON_New_Item
    cjson.o(i.cJSON_CreateString) refers to cjson.o(i.cJSON_strdup) for cJSON_strdup
    cjson.o(i.cJSON_CreateStringArray) refers to cjson.o(i.cJSON_CreateArray) for cJSON_CreateArray
    cjson.o(i.cJSON_CreateStringArray) refers to cjson.o(i.cJSON_CreateString) for cJSON_CreateString
    cjson.o(i.cJSON_CreateStringArray) refers to cjson.o(i.suffix_object) for suffix_object
    cjson.o(i.cJSON_CreateTrue) refers to cjson.o(i.cJSON_New_Item) for cJSON_New_Item
    cjson.o(i.cJSON_Delete) refers to cjson.o(.data) for cJSON_free
    cjson.o(i.cJSON_DeleteItemFromArray) refers to cjson.o(i.cJSON_DetachItemFromArray) for cJSON_DetachItemFromArray
    cjson.o(i.cJSON_DeleteItemFromArray) refers to cjson.o(i.cJSON_Delete) for cJSON_Delete
    cjson.o(i.cJSON_DeleteItemFromObject) refers to cjson.o(i.cJSON_DetachItemFromObject) for cJSON_DetachItemFromObject
    cjson.o(i.cJSON_DeleteItemFromObject) refers to cjson.o(i.cJSON_Delete) for cJSON_Delete
    cjson.o(i.cJSON_DetachItemFromObject) refers to cjson.o(i.cJSON_strcasecmp) for cJSON_strcasecmp
    cjson.o(i.cJSON_DetachItemFromObject) refers to cjson.o(i.cJSON_DetachItemFromArray) for cJSON_DetachItemFromArray
    cjson.o(i.cJSON_Duplicate) refers to cjson.o(i.cJSON_New_Item) for cJSON_New_Item
    cjson.o(i.cJSON_Duplicate) refers to cjson.o(i.cJSON_strdup) for cJSON_strdup
    cjson.o(i.cJSON_Duplicate) refers to cjson.o(i.cJSON_Delete) for cJSON_Delete
    cjson.o(i.cJSON_GetErrorPtr) refers to cjson.o(.data) for ep
    cjson.o(i.cJSON_GetObjectItem) refers to cjson.o(i.cJSON_strcasecmp) for cJSON_strcasecmp
    cjson.o(i.cJSON_InitHooks) refers to h1_alloc.o(.text) for malloc
    cjson.o(i.cJSON_InitHooks) refers to cjson.o(.data) for cJSON_malloc
    cjson.o(i.cJSON_InitHooks) refers to h1_free.o(.text) for free
    cjson.o(i.cJSON_InsertItemInArray) refers to cjson.o(i.cJSON_AddItemToArray) for cJSON_AddItemToArray
    cjson.o(i.cJSON_New_Item) refers to rt_memclr_w.o(.text) for __aeabi_memclr4
    cjson.o(i.cJSON_New_Item) refers to cjson.o(.data) for cJSON_malloc
    cjson.o(i.cJSON_Parse) refers to cjson.o(i.cJSON_ParseWithOpts) for cJSON_ParseWithOpts
    cjson.o(i.cJSON_ParseWithOpts) refers to cjson.o(i.cJSON_New_Item) for cJSON_New_Item
    cjson.o(i.cJSON_ParseWithOpts) refers to cjson.o(i.skip) for skip
    cjson.o(i.cJSON_ParseWithOpts) refers to cjson.o(i.parse_value) for parse_value
    cjson.o(i.cJSON_ParseWithOpts) refers to cjson.o(i.cJSON_Delete) for cJSON_Delete
    cjson.o(i.cJSON_ParseWithOpts) refers to cjson.o(.data) for ep
    cjson.o(i.cJSON_Print) refers to cjson.o(i.print_value) for print_value
    cjson.o(i.cJSON_PrintBuffered) refers to cjson.o(i.print_value) for print_value
    cjson.o(i.cJSON_PrintBuffered) refers to cjson.o(.data) for cJSON_malloc
    cjson.o(i.cJSON_PrintUnformatted) refers to cjson.o(i.print_value) for print_value
    cjson.o(i.cJSON_ReplaceItemInArray) refers to cjson.o(i.cJSON_Delete) for cJSON_Delete
    cjson.o(i.cJSON_ReplaceItemInObject) refers to cjson.o(i.cJSON_strcasecmp) for cJSON_strcasecmp
    cjson.o(i.cJSON_ReplaceItemInObject) refers to cjson.o(i.cJSON_strdup) for cJSON_strdup
    cjson.o(i.cJSON_ReplaceItemInObject) refers to cjson.o(i.cJSON_ReplaceItemInArray) for cJSON_ReplaceItemInArray
    cjson.o(i.cJSON_strcasecmp) refers to tolower.o(.text) for tolower
    cjson.o(i.cJSON_strdup) refers to strlen.o(.text) for strlen
    cjson.o(i.cJSON_strdup) refers to rt_memcpy_v6.o(.text) for __aeabi_memcpy
    cjson.o(i.cJSON_strdup) refers to cjson.o(.data) for cJSON_malloc
    cjson.o(i.create_reference) refers to cjson.o(i.cJSON_New_Item) for cJSON_New_Item
    cjson.o(i.create_reference) refers to rt_memcpy_w.o(.text) for __aeabi_memcpy4
    cjson.o(i.ensure) refers to cjson.o(i.pow2gt) for pow2gt
    cjson.o(i.ensure) refers to rt_memcpy_v6.o(.text) for __aeabi_memcpy
    cjson.o(i.ensure) refers to cjson.o(.data) for cJSON_malloc
    cjson.o(i.parse_array) refers to cjson.o(i.skip) for skip
    cjson.o(i.parse_array) refers to cjson.o(i.cJSON_New_Item) for cJSON_New_Item
    cjson.o(i.parse_array) refers to cjson.o(i.parse_value) for parse_value
    cjson.o(i.parse_array) refers to cjson.o(.data) for ep
    cjson.o(i.parse_number) refers to dflt_clz.o(x$fpl$dflt) for __aeabi_i2d
    cjson.o(i.parse_number) refers to dmul.o(x$fpl$dmul) for __aeabi_dmul
    cjson.o(i.parse_number) refers to daddsub_clz.o(x$fpl$dadd) for __aeabi_dadd
    cjson.o(i.parse_number) refers to daddsub_clz.o(x$fpl$dsub) for __aeabi_dsub
    cjson.o(i.parse_number) refers to pow.o(i.pow) for pow
    cjson.o(i.parse_number) refers to dfix.o(x$fpl$dfix) for __aeabi_d2iz
    cjson.o(i.parse_object) refers to cjson.o(i.skip) for skip
    cjson.o(i.parse_object) refers to cjson.o(i.cJSON_New_Item) for cJSON_New_Item
    cjson.o(i.parse_object) refers to cjson.o(i.parse_string) for parse_string
    cjson.o(i.parse_object) refers to cjson.o(i.parse_value) for parse_value
    cjson.o(i.parse_object) refers to cjson.o(.data) for ep
    cjson.o(i.parse_string) refers to cjson.o(i.parse_hex4) for parse_hex4
    cjson.o(i.parse_string) refers to cjson.o(.data) for ep
    cjson.o(i.parse_string) refers to cjson.o(.constdata) for firstByteMark
    cjson.o(i.parse_value) refers to strncmp.o(.text) for strncmp
    cjson.o(i.parse_value) refers to cjson.o(i.parse_string) for parse_string
    cjson.o(i.parse_value) refers to cjson.o(i.parse_number) for parse_number
    cjson.o(i.parse_value) refers to cjson.o(i.parse_array) for parse_array
    cjson.o(i.parse_value) refers to cjson.o(i.parse_object) for parse_object
    cjson.o(i.parse_value) refers to cjson.o(.data) for ep
    cjson.o(i.print_array) refers to cjson.o(i.ensure) for ensure
    cjson.o(i.print_array) refers to strcpy.o(.text) for strcpy
    cjson.o(i.print_array) refers to cjson.o(i.print_value) for print_value
    cjson.o(i.print_array) refers to cjson.o(i.update) for update
    cjson.o(i.print_array) refers to rt_memclr_w.o(.text) for __aeabi_memclr4
    cjson.o(i.print_array) refers to strlen.o(.text) for strlen
    cjson.o(i.print_array) refers to rt_memcpy_v6.o(.text) for __aeabi_memcpy
    cjson.o(i.print_array) refers to cjson.o(.data) for cJSON_malloc
    cjson.o(i.print_number) refers to _printf_percent.o(.ARM.Collect$$_printf_percent$$00000000) for _printf_percent
    cjson.o(i.print_number) refers to _printf_d.o(.ARM.Collect$$_printf_percent$$00000009) for _printf_d
    cjson.o(i.print_number) refers to _printf_dec.o(.text) for _printf_int_dec
    cjson.o(i.print_number) refers to _printf_f.o(.ARM.Collect$$_printf_percent$$00000003) for _printf_f
    cjson.o(i.print_number) refers to printf1.o(x$fpl$printf1) for _printf_fp_dec
    cjson.o(i.print_number) refers to _printf_e.o(.ARM.Collect$$_printf_percent$$00000004) for _printf_e
    cjson.o(i.print_number) refers to deqf.o(x$fpl$deqf) for __aeabi_cdcmpeq
    cjson.o(i.print_number) refers to cjson.o(i.ensure) for ensure
    cjson.o(i.print_number) refers to dflt_clz.o(x$fpl$dflt) for __aeabi_i2d
    cjson.o(i.print_number) refers to daddsub_clz.o(x$fpl$dsub) for __aeabi_dsub
    cjson.o(i.print_number) refers to dleqf.o(x$fpl$dleqf) for __aeabi_cdcmple
    cjson.o(i.print_number) refers to drleqf.o(x$fpl$drleqf) for __aeabi_cdrcmple
    cjson.o(i.print_number) refers to __2sprintf.o(.text) for __2sprintf
    cjson.o(i.print_number) refers to floor.o(i.floor) for floor
    cjson.o(i.print_number) refers to cjson.o(.data) for cJSON_malloc
    cjson.o(i.print_object) refers to cjson.o(i.ensure) for ensure
    cjson.o(i.print_object) refers to cjson.o(i.print_string_ptr) for print_string_ptr
    cjson.o(i.print_object) refers to cjson.o(i.update) for update
    cjson.o(i.print_object) refers to cjson.o(i.print_value) for print_value
    cjson.o(i.print_object) refers to rt_memclr_w.o(.text) for __aeabi_memclr4
    cjson.o(i.print_object) refers to strlen.o(.text) for strlen
    cjson.o(i.print_object) refers to rt_memcpy_v6.o(.text) for __aeabi_memcpy
    cjson.o(i.print_object) refers to strcpy.o(.text) for strcpy
    cjson.o(i.print_object) refers to cjson.o(.data) for cJSON_malloc
    cjson.o(i.print_string) refers to cjson.o(i.print_string_ptr) for print_string_ptr
    cjson.o(i.print_string_ptr) refers to _printf_pad.o(.text) for _printf_pre_padding
    cjson.o(i.print_string_ptr) refers to _printf_percent.o(.ARM.Collect$$_printf_percent$$00000000) for _printf_percent
    cjson.o(i.print_string_ptr) refers to _printf_x.o(.ARM.Collect$$_printf_percent$$0000000C) for _printf_x
    cjson.o(i.print_string_ptr) refers to _printf_hex_int_ll_ptr.o(.text) for _printf_longlong_hex
    cjson.o(i.print_string_ptr) refers to cjson.o(i.ensure) for ensure
    cjson.o(i.print_string_ptr) refers to strcpy.o(.text) for strcpy
    cjson.o(i.print_string_ptr) refers to strchr.o(.text) for strchr
    cjson.o(i.print_string_ptr) refers to __2sprintf.o(.text) for __2sprintf
    cjson.o(i.print_string_ptr) refers to cjson.o(.data) for cJSON_malloc
    cjson.o(i.print_value) refers to cjson.o(i.ensure) for ensure
    cjson.o(i.print_value) refers to strcpy.o(.text) for strcpy
    cjson.o(i.print_value) refers to cjson.o(i.print_number) for print_number
    cjson.o(i.print_value) refers to cjson.o(i.print_string) for print_string
    cjson.o(i.print_value) refers to cjson.o(i.print_array) for print_array
    cjson.o(i.print_value) refers to cjson.o(i.print_object) for print_object
    cjson.o(i.print_value) refers to cjson.o(i.cJSON_strdup) for cJSON_strdup
    cjson.o(i.update) refers to strlen.o(.text) for strlen
    cjson.o(.data) refers to h1_alloc.o(.text) for malloc
    cjson.o(.data) refers to h1_free.o(.text) for free
    malloc.o(.text) refers (Special) to hguard.o(.text) for __heap$guard
    malloc.o(.text) refers (Special) to init_alloc.o(.text) for _init_alloc
    malloc.o(.text) refers to rt_heap_descriptor_intlibspace.o(.text) for __rt_heap_descriptor
    malloc.o(.text) refers to heapstubs.o(.text) for __Heap_Alloc
    free.o(.text) refers (Special) to hguard.o(.text) for __heap$guard
    free.o(.text) refers to rt_heap_descriptor_intlibspace.o(.text) for __rt_heap_descriptor
    free.o(.text) refers to heapstubs.o(.text) for __Heap_Free
    h1_alloc.o(.text) refers (Special) to h1_init.o(.text) for __Heap_Initialize
    h1_alloc.o(.text) refers to rt_heap_descriptor_intlibspace.o(.text) for __rt_heap_descriptor
    h1_alloc.o(.text) refers to init_alloc.o(.text) for __Heap_Full
    h1_free.o(.text) refers to rt_heap_descriptor_intlibspace.o(.text) for __rt_heap_descriptor
    h1_alloc_mt.o(.text) refers (Special) to h1_init.o(.text) for __Heap_Initialize
    h1_alloc_mt.o(.text) refers to init_alloc.o(.text) for __Heap_Full
    h1_alloc_mt.o(.text) refers to rt_heap_descriptor_intlibspace.o(.text) for __rt_heap_descriptor
    h1_free_mt.o(.text) refers to rt_heap_descriptor_intlibspace.o(.text) for __rt_heap_descriptor
    heap2.o(i._FDIterate) refers to heap2.o(.conststring) for .conststring
    heap2.o(i.___Heap_ProvideMemory$realtime) refers to fdtree.o(i._FDTree_Delete) for _FDTree_Delete
    heap2.o(i.___Heap_ProvideMemory$realtime) refers to fdtree.o(i._FDTree_Insert) for _FDTree_Insert
    heap2.o(i.___Heap_Stats$realtime) refers to heap2.o(i._Heap2_StatsIterate) for _Heap2_StatsIterate
    heap2.o(i.___Heap_Valid$realtime) refers to heap2.o(i._FDIterate) for _FDIterate
    heap2.o(i.___Heap_Valid$realtime) refers to heap2.o(.conststring) for .conststring
    heap2.o(i._free$realtime) refers to rt_heap_descriptor_intlibspace.o(.text) for __rt_heap_descriptor
    heap2.o(i._free$realtime) refers to fdtree.o(i._FDTree_Delete) for _FDTree_Delete
    heap2.o(i._free$realtime) refers to fdtree.o(i._FDTree_Insert) for _FDTree_Insert
    heap2.o(i._malloc$realtime) refers to rt_heap_descriptor_intlibspace.o(.text) for __rt_heap_descriptor
    heap2.o(i._malloc$realtime) refers to fdtree.o(i._FDTree_FindFirst) for _FDTree_FindFirst
    heap2.o(i._malloc$realtime) refers to init_alloc.o(.text) for __Heap_Full
    heap2.o(i._malloc$realtime) refers to fdtree.o(i._FDTree_RemoveNode) for _FDTree_RemoveNode
    heap2.o(i._malloc$realtime) refers to fdtree.o(i._FDTree_Insert) for _FDTree_Insert
    heap2.o(i._posix_memalign$realtime) refers to rt_heap_descriptor_intlibspace.o(.text) for __rt_heap_descriptor
    heap2.o(i._posix_memalign$realtime) refers to fdtree.o(i._FDTree_FindFirst) for _FDTree_FindFirst
    heap2.o(i._posix_memalign$realtime) refers to init_alloc.o(.text) for __Heap_Full
    heap2.o(i._posix_memalign$realtime) refers to fdtree.o(i._FDTree_RemoveNode) for _FDTree_RemoveNode
    heap2.o(i._posix_memalign$realtime) refers to fdtree.o(i._FDTree_Insert) for _FDTree_Insert
    heap2.o(i._realloc$realtime) refers to rt_heap_descriptor_intlibspace.o(.text) for __rt_heap_descriptor
    heap2.o(i._realloc$realtime) refers to fdtree.o(i._FDTree_Insert) for _FDTree_Insert
    heap2.o(i._realloc$realtime) refers to h1_free.o(.text) for free
    heap2.o(i._realloc$realtime) refers to h1_alloc.o(.text) for malloc
    heap2.o(i._realloc$realtime) refers to fdtree.o(i._FDTree_Delete) for _FDTree_Delete
    heap2.o(i._realloc$realtime) refers to rt_memcpy_w.o(.text) for __aeabi_memcpy4
    heap2mt.o(i._FDIterate) refers to heap2mt.o(.conststring) for .conststring
    heap2mt.o(i.___Heap_Initialize$realtime$concurrent) refers to mutex_dummy.o(.text) for _mutex_initialize
    heap2mt.o(i.___Heap_ProvideMemory$realtime$concurrent) refers to fdtree.o(i._FDTree_Delete) for _FDTree_Delete
    heap2mt.o(i.___Heap_ProvideMemory$realtime$concurrent) refers to fdtree.o(i._FDTree_Insert) for _FDTree_Insert
    heap2mt.o(i.___Heap_Stats$realtime$concurrent) refers to heap2mt.o(i._Heap2_StatsIterate) for _Heap2_StatsIterate
    heap2mt.o(i.___Heap_Valid$realtime$concurrent) refers to heap2mt.o(i._FDIterate) for _FDIterate
    heap2mt.o(i.___Heap_Valid$realtime$concurrent) refers to heap2mt.o(.conststring) for .conststring
    heap2mt.o(i._free$realtime$concurrent) refers to rt_heap_descriptor_intlibspace.o(.text) for __rt_heap_descriptor
    heap2mt.o(i._free$realtime$concurrent) refers to fdtree.o(i._FDTree_Delete) for _FDTree_Delete
    heap2mt.o(i._free$realtime$concurrent) refers to fdtree.o(i._FDTree_Insert) for _FDTree_Insert
    heap2mt.o(i._malloc$realtime$concurrent) refers to rt_heap_descriptor_intlibspace.o(.text) for __rt_heap_descriptor
    heap2mt.o(i._malloc$realtime$concurrent) refers to fdtree.o(i._FDTree_FindFirst) for _FDTree_FindFirst
    heap2mt.o(i._malloc$realtime$concurrent) refers to init_alloc.o(.text) for __Heap_Full
    heap2mt.o(i._malloc$realtime$concurrent) refers to fdtree.o(i._FDTree_RemoveNode) for _FDTree_RemoveNode
    heap2mt.o(i._malloc$realtime$concurrent) refers to fdtree.o(i._FDTree_Insert) for _FDTree_Insert
    heap2mt.o(i._posix_memalign$realtime$concurrent) refers to rt_heap_descriptor_intlibspace.o(.text) for __rt_heap_descriptor
    heap2mt.o(i._posix_memalign$realtime$concurrent) refers to fdtree.o(i._FDTree_FindFirst) for _FDTree_FindFirst
    heap2mt.o(i._posix_memalign$realtime$concurrent) refers to init_alloc.o(.text) for __Heap_Full
    heap2mt.o(i._posix_memalign$realtime$concurrent) refers to fdtree.o(i._FDTree_RemoveNode) for _FDTree_RemoveNode
    heap2mt.o(i._posix_memalign$realtime$concurrent) refers to fdtree.o(i._FDTree_Insert) for _FDTree_Insert
    heap2mt.o(i._realloc$realtime$concurrent) refers to rt_heap_descriptor_intlibspace.o(.text) for __rt_heap_descriptor
    heap2mt.o(i._realloc$realtime$concurrent) refers to fdtree.o(i._FDTree_Insert) for _FDTree_Insert
    heap2mt.o(i._realloc$realtime$concurrent) refers to h1_free.o(.text) for free
    heap2mt.o(i._realloc$realtime$concurrent) refers to h1_alloc.o(.text) for malloc
    heap2mt.o(i._realloc$realtime$concurrent) refers to fdtree.o(i._FDTree_Delete) for _FDTree_Delete
    heap2mt.o(i._realloc$realtime$concurrent) refers to rt_memcpy_w.o(.text) for __aeabi_memcpy4
    tolower.o(.text) refers to rt_ctype_table.o(.text) for __rt_ctype_table
    c89vsnprintf.o(.text) refers (Special) to _printf_a.o(.ARM.Collect$$_printf_percent$$00000006) for _printf_a
    c89vsnprintf.o(.text) refers (Special) to _printf_c.o(.ARM.Collect$$_printf_percent$$00000013) for _printf_c
    c89vsnprintf.o(.text) refers (Special) to _printf_charcount.o(.text) for _printf_charcount
    c89vsnprintf.o(.text) refers (Special) to _printf_d.o(.ARM.Collect$$_printf_percent$$00000009) for _printf_d
    c89vsnprintf.o(.text) refers (Special) to _printf_e.o(.ARM.Collect$$_printf_percent$$00000004) for _printf_e
    c89vsnprintf.o(.text) refers (Special) to _printf_f.o(.ARM.Collect$$_printf_percent$$00000003) for _printf_f
    c89vsnprintf.o(.text) refers (Special) to printf1.o(x$fpl$printf1) for _printf_fp_dec
    c89vsnprintf.o(.text) refers (Special) to _printf_g.o(.ARM.Collect$$_printf_percent$$00000005) for _printf_g
    c89vsnprintf.o(.text) refers (Special) to _printf_i.o(.ARM.Collect$$_printf_percent$$00000008) for _printf_i
    c89vsnprintf.o(.text) refers (Special) to _printf_dec.o(.text) for _printf_int_dec
    c89vsnprintf.o(.text) refers (Special) to _printf_l.o(.ARM.Collect$$_printf_percent$$00000012) for _printf_l
    c89vsnprintf.o(.text) refers (Special) to _printf_lc.o(.ARM.Collect$$_printf_percent$$00000015) for _printf_lc
    c89vsnprintf.o(.text) refers (Special) to _printf_ll.o(.ARM.Collect$$_printf_percent$$00000007) for _printf_ll
    c89vsnprintf.o(.text) refers (Special) to _printf_lld.o(.ARM.Collect$$_printf_percent$$0000000E) for _printf_lld
    c89vsnprintf.o(.text) refers (Special) to _printf_lli.o(.ARM.Collect$$_printf_percent$$0000000D) for _printf_lli
    c89vsnprintf.o(.text) refers (Special) to _printf_llo.o(.ARM.Collect$$_printf_percent$$00000010) for _printf_llo
    c89vsnprintf.o(.text) refers (Special) to _printf_llu.o(.ARM.Collect$$_printf_percent$$0000000F) for _printf_llu
    c89vsnprintf.o(.text) refers (Special) to _printf_llx.o(.ARM.Collect$$_printf_percent$$00000011) for _printf_llx
    c89vsnprintf.o(.text) refers (Special) to _printf_longlong_dec.o(.text) for _printf_longlong_dec
    c89vsnprintf.o(.text) refers (Special) to _printf_hex_int_ll_ptr.o(.text) for _printf_longlong_hex
    c89vsnprintf.o(.text) refers (Special) to _printf_oct_int_ll.o(.text) for _printf_longlong_oct
    c89vsnprintf.o(.text) refers (Special) to _printf_ls.o(.ARM.Collect$$_printf_percent$$00000016) for _printf_ls
    c89vsnprintf.o(.text) refers (Special) to _printf_n.o(.ARM.Collect$$_printf_percent$$00000001) for _printf_n
    c89vsnprintf.o(.text) refers (Special) to _printf_o.o(.ARM.Collect$$_printf_percent$$0000000B) for _printf_o
    c89vsnprintf.o(.text) refers (Special) to _printf_p.o(.ARM.Collect$$_printf_percent$$00000002) for _printf_p
    c89vsnprintf.o(.text) refers (Special) to _printf_percent.o(.ARM.Collect$$_printf_percent$$00000000) for _printf_percent
    c89vsnprintf.o(.text) refers (Special) to _printf_pad.o(.text) for _printf_post_padding
    c89vsnprintf.o(.text) refers (Special) to _printf_s.o(.ARM.Collect$$_printf_percent$$00000014) for _printf_s
    c89vsnprintf.o(.text) refers (Special) to _printf_str.o(.text) for _printf_str
    c89vsnprintf.o(.text) refers (Special) to _printf_truncate.o(.text) for _printf_truncate_signed
    c89vsnprintf.o(.text) refers (Special) to _printf_u.o(.ARM.Collect$$_printf_percent$$0000000A) for _printf_u
    c89vsnprintf.o(.text) refers (Special) to _printf_wctomb.o(.text) for _printf_wctomb
    c89vsnprintf.o(.text) refers (Special) to _printf_x.o(.ARM.Collect$$_printf_percent$$0000000C) for _printf_x
    c89vsnprintf.o(.text) refers to _printf_char_common.o(.text) for _printf_char_common
    c89vsnprintf.o(.text) refers to _sputc.o(.text) for _sputc
    c89vsnprintf.o(.text) refers to _snputc.o(.text) for _snputc
    __2printf.o(.text) refers to _printf_char_file.o(.text) for _printf_char_file
    __2printf.o(.text) refers to stdio_streams.o(.bss) for __stdout
    __2sprintf.o(.text) refers to _printf_char_common.o(.text) for _printf_char_common
    __2sprintf.o(.text) refers to _sputc.o(.text) for _sputc
    noretval__2printf.o(.text) refers to _printf_char_file.o(.text) for _printf_char_file
    noretval__2printf.o(.text) refers to stdio_streams.o(.bss) for __stdout
    noretval__2sprintf.o(.text) refers to _printf_char_common.o(.text) for _printf_char_common
    noretval__2sprintf.o(.text) refers to _sputc.o(.text) for _sputc
    __printf.o(.text) refers to _printf_percent.o(.ARM.Collect$$_printf_percent$$00000000) for _printf_percent
    _printf_str.o(.text) refers (Special) to _printf_char.o(.text) for _printf_cs_common
    _printf_str.o(.text) refers (Weak) to _printf_pad.o(.text) for _printf_pre_padding
    _printf_str.o(.text) refers (Weak) to _printf_pad.o(.text) for _printf_post_padding
    _printf_dec.o(.text) refers (Weak) to _printf_truncate.o(.text) for _printf_truncate_signed
    _printf_dec.o(.text) refers (Weak) to _printf_truncate.o(.text) for _printf_truncate_unsigned
    _printf_dec.o(.text) refers to _printf_intcommon.o(.text) for _printf_int_common
    _printf_hex_ll.o(.text) refers to _printf_intcommon.o(.text) for _printf_int_common
    _printf_hex_ll.o(.text) refers to _printf_hex_ll.o(.constdata) for .constdata
    _printf_hex_int.o(.text) refers (Weak) to _printf_truncate.o(.text) for _printf_truncate_unsigned
    _printf_hex_int.o(.text) refers to _printf_intcommon.o(.text) for _printf_int_common
    _printf_hex_int.o(.text) refers to _printf_hex_int.o(.constdata) for .constdata
    _printf_hex_int_ll.o(.text) refers to _printf_intcommon.o(.text) for _printf_int_common
    _printf_hex_int_ll.o(.text) refers (Weak) to _printf_truncate.o(.text) for _printf_truncate_unsigned
    _printf_hex_int_ll.o(.text) refers to _printf_hex_int_ll.o(.constdata) for .constdata
    _printf_hex_ptr.o(.text) refers to _printf_intcommon.o(.text) for _printf_int_common
    _printf_hex_ptr.o(.text) refers to _printf_hex_ptr.o(.constdata) for .constdata
    _printf_hex_int_ptr.o(.text) refers to _printf_intcommon.o(.text) for _printf_int_common
    _printf_hex_int_ptr.o(.text) refers (Weak) to _printf_truncate.o(.text) for _printf_truncate_unsigned
    _printf_hex_int_ptr.o(.text) refers to _printf_hex_int_ptr.o(.constdata) for .constdata
    _printf_hex_ll_ptr.o(.text) refers to _printf_intcommon.o(.text) for _printf_int_common
    _printf_hex_ll_ptr.o(.text) refers to _printf_hex_ll_ptr.o(.constdata) for .constdata
    _printf_hex_int_ll_ptr.o(.text) refers to _printf_intcommon.o(.text) for _printf_int_common
    _printf_hex_int_ll_ptr.o(.text) refers (Weak) to _printf_truncate.o(.text) for _printf_truncate_unsigned
    _printf_hex_int_ll_ptr.o(.text) refers to _printf_hex_int_ll_ptr.o(.constdata) for .constdata
    __printf_flags.o(.text) refers to _printf_percent.o(.ARM.Collect$$_printf_percent$$00000000) for _printf_percent
    __printf_flags.o(.text) refers to __printf_flags.o(.constdata) for .constdata
    __printf_ss.o(.text) refers to _printf_percent.o(.ARM.Collect$$_printf_percent$$00000000) for _printf_percent
    __printf_flags_ss.o(.text) refers to _printf_percent.o(.ARM.Collect$$_printf_percent$$00000000) for _printf_percent
    __printf_flags_ss.o(.text) refers to __printf_flags_ss.o(.constdata) for .constdata
    __printf_wp.o(.text) refers to __printf_wp.o(i._is_digit) for _is_digit
    __printf_wp.o(.text) refers to _printf_percent.o(.ARM.Collect$$_printf_percent$$00000000) for _printf_percent
    __printf_flags_wp.o(.text) refers to __printf_wp.o(i._is_digit) for _is_digit
    __printf_flags_wp.o(.text) refers to _printf_percent.o(.ARM.Collect$$_printf_percent$$00000000) for _printf_percent
    __printf_flags_wp.o(.text) refers to __printf_flags_wp.o(.constdata) for .constdata
    __printf_ss_wp.o(.text) refers to __printf_wp.o(i._is_digit) for _is_digit
    __printf_ss_wp.o(.text) refers to _printf_percent.o(.ARM.Collect$$_printf_percent$$00000000) for _printf_percent
    __printf_flags_ss_wp.o(.text) refers to __printf_wp.o(i._is_digit) for _is_digit
    __printf_flags_ss_wp.o(.text) refers to _printf_percent.o(.ARM.Collect$$_printf_percent$$00000000) for _printf_percent
    __printf_flags_ss_wp.o(.text) refers to __printf_flags_ss_wp.o(.constdata) for .constdata
    _printf_s.o(.ARM.Collect$$_printf_percent$$00000014) refers (Weak) to _printf_char.o(.text) for _printf_string
    _printf_x.o(.ARM.Collect$$_printf_percent$$0000000C) refers (Weak) to _printf_hex_int_ll_ptr.o(.text) for _printf_int_hex
    _printf_d.o(.ARM.Collect$$_printf_percent$$00000009) refers (Weak) to _printf_dec.o(.text) for _printf_int_dec
    _printf_f.o(.ARM.Collect$$_printf_percent$$00000003) refers (Weak) to printf1.o(x$fpl$printf1) for _printf_fp_dec
    _printf_e.o(.ARM.Collect$$_printf_percent$$00000004) refers (Weak) to printf1.o(x$fpl$printf1) for _printf_fp_dec
    _printf_percent.o(.ARM.Collect$$_printf_percent$$00000000) refers (Special) to _printf_percent_end.o(.ARM.Collect$$_printf_percent$$00000017) for _printf_percent_end
    atoi.o(.text) refers to rt_errno_addr_intlibspace.o(.text) for __aeabi_errno_addr
    atoi.o(.text) refers to strtol.o(.text) for strtol
    rt_memcpy_v6.o(.text) refers to rt_memcpy_w.o(.text) for __aeabi_memcpy4
    rt_memclr.o(.text) refers to rt_memclr_w.o(.text) for _memset_w
    __main.o(!!!main) refers to __rtentry.o(.ARM.Collect$$rtentry$$00000000) for __rt_entry
    d2f.o(x$fpl$d2f) refers (Special) to usenofp.o(x$fpl$usenofp) for __I$use$fp
    d2f.o(x$fpl$d2f) refers to fretinf.o(x$fpl$fretinf) for __fpl_fretinf
    d2f.o(x$fpl$d2f) refers to dnaninf.o(x$fpl$dnaninf) for __fpl_dnaninf
    daddsub_clz.o(x$fpl$dadd) refers (Special) to usenofp.o(x$fpl$usenofp) for __I$use$fp
    daddsub_clz.o(x$fpl$dadd) refers to daddsub_clz.o(x$fpl$dsub) for _dsub1
    daddsub_clz.o(x$fpl$dadd) refers to dretinf.o(x$fpl$dretinf) for __fpl_dretinf
    daddsub_clz.o(x$fpl$dadd) refers to dnaninf.o(x$fpl$dnaninf) for __fpl_dnaninf
    daddsub_clz.o(x$fpl$drsb) refers (Special) to usenofp.o(x$fpl$usenofp) for __I$use$fp
    daddsub_clz.o(x$fpl$drsb) refers to daddsub_clz.o(x$fpl$dadd) for _dadd1
    daddsub_clz.o(x$fpl$drsb) refers to daddsub_clz.o(x$fpl$dsub) for _dsub1
    daddsub_clz.o(x$fpl$dsub) refers (Special) to usenofp.o(x$fpl$usenofp) for __I$use$fp
    daddsub_clz.o(x$fpl$dsub) refers to daddsub_clz.o(x$fpl$dadd) for _dadd1
    daddsub_clz.o(x$fpl$dsub) refers to dnaninf.o(x$fpl$dnaninf) for __fpl_dnaninf
    deqf.o(x$fpl$deqf) refers (Special) to usenofp.o(x$fpl$usenofp) for __I$use$fp
    deqf.o(x$fpl$deqf) refers to dnaninf.o(x$fpl$dnaninf) for __fpl_dnaninf
    deqf.o(x$fpl$deqf) refers to dcmpi.o(x$fpl$dcmpinf) for __fpl_dcmp_Inf
    dfix.o(x$fpl$dfix) refers (Special) to usenofp.o(x$fpl$usenofp) for __I$use$fp
    dfix.o(x$fpl$dfix) refers to dnaninf.o(x$fpl$dnaninf) for __fpl_dnaninf
    dfix.o(x$fpl$dfixr) refers (Special) to usenofp.o(x$fpl$usenofp) for __I$use$fp
    dfix.o(x$fpl$dfixr) refers to dnaninf.o(x$fpl$dnaninf) for __fpl_dnaninf
    dflt_clz.o(x$fpl$dfltu) refers (Special) to usenofp.o(x$fpl$usenofp) for __I$use$fp
    dflt_clz.o(x$fpl$dflt) refers (Special) to usenofp.o(x$fpl$usenofp) for __I$use$fp
    dflt_clz.o(x$fpl$dfltn) refers (Special) to usenofp.o(x$fpl$usenofp) for __I$use$fp
    dleqf.o(x$fpl$dleqf) refers (Special) to usenofp.o(x$fpl$usenofp) for __I$use$fp
    dleqf.o(x$fpl$dleqf) refers to dnaninf.o(x$fpl$dnaninf) for __fpl_dnaninf
    dleqf.o(x$fpl$dleqf) refers to dcmpi.o(x$fpl$dcmpinf) for __fpl_dcmp_Inf
    dmul.o(x$fpl$dmul) refers (Special) to usenofp.o(x$fpl$usenofp) for __I$use$fp
    dmul.o(x$fpl$dmul) refers to dretinf.o(x$fpl$dretinf) for __fpl_dretinf
    dmul.o(x$fpl$dmul) refers to dnaninf.o(x$fpl$dnaninf) for __fpl_dnaninf
    drleqf.o(x$fpl$drleqf) refers (Special) to usenofp.o(x$fpl$usenofp) for __I$use$fp
    drleqf.o(x$fpl$drleqf) refers to dleqf.o(x$fpl$dleqf) for __fpl_dcmple_InfNaN
    f2d.o(x$fpl$f2d) refers (Special) to usenofp.o(x$fpl$usenofp) for __I$use$fp
    f2d.o(x$fpl$f2d) refers to fnaninf.o(x$fpl$fnaninf) for __fpl_fnaninf
    f2d.o(x$fpl$f2d) refers to dretinf.o(x$fpl$dretinf) for __fpl_dretinf
    ffix.o(x$fpl$ffix) refers (Special) to usenofp.o(x$fpl$usenofp) for __I$use$fp
    ffix.o(x$fpl$ffix) refers to fnaninf.o(x$fpl$fnaninf) for __fpl_fnaninf
    ffix.o(x$fpl$ffixr) refers (Special) to usenofp.o(x$fpl$usenofp) for __I$use$fp
    ffix.o(x$fpl$ffixr) refers to fnaninf.o(x$fpl$fnaninf) for __fpl_fnaninf
    fmul.o(x$fpl$fmul) refers (Special) to usenofp.o(x$fpl$usenofp) for __I$use$fp
    fmul.o(x$fpl$fmul) refers to fretinf.o(x$fpl$fretinf) for __fpl_fretinf
    fmul.o(x$fpl$fmul) refers to fnaninf.o(x$fpl$fnaninf) for __fpl_fnaninf
    printf1.o(x$fpl$printf1) refers to _printf_fp_dec.o(.text) for _printf_fp_dec_real
    floor.o(i.__softfp_floor) refers (Special) to usenofp.o(x$fpl$usenofp) for __I$use$fp
    floor.o(i.__softfp_floor) refers to floor.o(i.floor) for floor
    floor.o(i.floor) refers (Special) to usenofp.o(x$fpl$usenofp) for __I$use$fp
    floor.o(i.floor) refers to daddsub_clz.o(x$fpl$dadd) for __aeabi_dadd
    floor.o(i.floor) refers to drleqf.o(x$fpl$drleqf) for __aeabi_cdrcmple
    floor.o(i.floor) refers to daddsub_clz.o(x$fpl$drsb) for __aeabi_drsub
    pow.o(i.__softfp_pow) refers (Special) to usenofp.o(x$fpl$usenofp) for __I$use$fp
    pow.o(i.__softfp_pow) refers to pow.o(i.pow) for pow
    pow.o(i.pow) refers (Special) to usenofp.o(x$fpl$usenofp) for __I$use$fp
    pow.o(i.pow) refers to dunder.o(i.__mathlib_dbl_infnan2) for __mathlib_dbl_infnan2
    pow.o(i.pow) refers to _rserrno.o(.text) for __set_errno
    pow.o(i.pow) refers to dunder.o(i.__mathlib_dbl_divzero) for __mathlib_dbl_divzero
    pow.o(i.pow) refers to dunder.o(i.__mathlib_dbl_overflow) for __mathlib_dbl_overflow
    pow.o(i.pow) refers to ddiv.o(x$fpl$ddiv) for __aeabi_ddiv
    pow.o(i.pow) refers to sqrt.o(i.sqrt) for sqrt
    pow.o(i.pow) refers to dmul.o(x$fpl$dmul) for __aeabi_dmul
    pow.o(i.pow) refers to dunder.o(i.__mathlib_dbl_invalid) for __mathlib_dbl_invalid
    pow.o(i.pow) refers to dunder.o(i.__mathlib_dbl_underflow) for __mathlib_dbl_underflow
    pow.o(i.pow) refers to daddsub_clz.o(x$fpl$dsub) for __aeabi_dsub
    pow.o(i.pow) refers to scalbn.o(x$fpl$scalbn) for __ARM_scalbn
    pow.o(i.pow) refers to daddsub_clz.o(x$fpl$drsb) for __aeabi_drsub
    pow.o(i.pow) refers to daddsub_clz.o(x$fpl$dadd) for __aeabi_dadd
    pow.o(i.pow) refers to qnan.o(.constdata) for __mathlib_zero
    pow.o(i.pow) refers to poly.o(i.__kernel_poly) for __kernel_poly
    pow.o(i.pow) refers to dflt_clz.o(x$fpl$dflt) for __aeabi_i2d
    pow.o(i.pow) refers to drleqf.o(x$fpl$drleqf) for __aeabi_cdrcmple
    pow.o(i.pow) refers to pow.o(.constdata) for .constdata
    pow.o(i.pow) refers to fpclassify.o(i.__ARM_fpclassify) for __ARM_fpclassify
    pow.o(.constdata) refers (Special) to usenofp.o(x$fpl$usenofp) for __I$use$fp
    pow_x.o(i.____softfp_pow$lsc) refers (Special) to usenofp.o(x$fpl$usenofp) for __I$use$fp
    pow_x.o(i.____softfp_pow$lsc) refers to pow_x.o(i.__pow$lsc) for __pow$lsc
    pow_x.o(i.__pow$lsc) refers (Special) to usenofp.o(x$fpl$usenofp) for __I$use$fp
    pow_x.o(i.__pow$lsc) refers to dunder.o(i.__mathlib_dbl_infnan2) for __mathlib_dbl_infnan2
    pow_x.o(i.__pow$lsc) refers to _rserrno.o(.text) for __set_errno
    pow_x.o(i.__pow$lsc) refers to ddiv.o(x$fpl$ddiv) for __aeabi_ddiv
    pow_x.o(i.__pow$lsc) refers to sqrt.o(i.sqrt) for sqrt
    pow_x.o(i.__pow$lsc) refers to dmul.o(x$fpl$dmul) for __aeabi_dmul
    pow_x.o(i.__pow$lsc) refers to dflt_clz.o(x$fpl$dflt) for __aeabi_i2d
    pow_x.o(i.__pow$lsc) refers to daddsub_clz.o(x$fpl$dsub) for __aeabi_dsub
    pow_x.o(i.__pow$lsc) refers to scalbn.o(x$fpl$scalbn) for __ARM_scalbn
    pow_x.o(i.__pow$lsc) refers to daddsub_clz.o(x$fpl$drsb) for __aeabi_drsub
    pow_x.o(i.__pow$lsc) refers to daddsub_clz.o(x$fpl$dadd) for __aeabi_dadd
    pow_x.o(i.__pow$lsc) refers to qnan.o(.constdata) for __mathlib_zero
    pow_x.o(i.__pow$lsc) refers to pow_x.o(.constdata) for .constdata
    pow_x.o(i.__pow$lsc) refers to poly.o(i.__kernel_poly) for __kernel_poly
    pow_x.o(i.__pow$lsc) refers to drleqf.o(x$fpl$drleqf) for __aeabi_cdrcmple
    pow_x.o(.constdata) refers (Special) to usenofp.o(x$fpl$usenofp) for __I$use$fp
    __rtentry.o(.ARM.Collect$$rtentry$$00000000) refers (Special) to __rtentry2.o(.ARM.Collect$$rtentry$$0000000A) for __rt_entry_li
    __rtentry.o(.ARM.Collect$$rtentry$$00000000) refers (Special) to __rtentry2.o(.ARM.Collect$$rtentry$$0000000D) for __rt_entry_main
    __rtentry.o(.ARM.Collect$$rtentry$$00000000) refers (Special) to __rtentry2.o(.ARM.Collect$$rtentry$$0000000C) for __rt_entry_postli_1
    __rtentry.o(.ARM.Collect$$rtentry$$00000000) refers (Special) to __rtentry2.o(.ARM.Collect$$rtentry$$00000009) for __rt_entry_postsh_1
    __rtentry.o(.ARM.Collect$$rtentry$$00000000) refers (Special) to __rtentry2.o(.ARM.Collect$$rtentry$$00000002) for __rt_entry_presh_1
    __rtentry.o(.ARM.Collect$$rtentry$$00000000) refers (Special) to __rtentry4.o(.ARM.Collect$$rtentry$$00000004) for __rt_entry_sh
    rt_ctype_table.o(.text) refers to rt_locale_intlibspace.o(.text) for __rt_locale
    rt_ctype_table.o(.text) refers to lc_ctype_c.o(locale$$code) for _get_lc_ctype
    rt_heap_descriptor.o(.text) refers to rt_heap_descriptor.o(.bss) for __rt_heap_descriptor_data
    rt_heap_descriptor_intlibspace.o(.text) refers to libspace.o(.bss) for __libspace_start
    rt_errno_addr.o(.text) refers to rt_errno_addr.o(.bss) for __aeabi_errno_addr_data
    rt_errno_addr_intlibspace.o(.text) refers to libspace.o(.bss) for __libspace_start
    init_alloc.o(.text) refers (Special) to hguard.o(.text) for __heap$guard
    init_alloc.o(.text) refers (Special) to libinit2.o(.ARM.Collect$$libinit$$00000005) for __rt_lib_init_heap_2
    init_alloc.o(.text) refers (Special) to maybetermalloc1.o(.emb_text) for _maybe_terminate_alloc
    init_alloc.o(.text) refers to h1_extend.o(.text) for __Heap_ProvideMemory
    init_alloc.o(.text) refers to defsig_rtmem_outer.o(.text) for __rt_SIGRTMEM
    init_alloc.o(.text) refers to rt_heap_descriptor_intlibspace.o(.text) for __rt_heap_descriptor
    init_alloc.o(.text) refers to h1_init.o(.text) for __Heap_Initialize
    h1_init_mt.o(.text) refers to mutex_dummy.o(.text) for _mutex_initialize
    _rserrno.o(.text) refers to rt_errno_addr_intlibspace.o(.text) for __aeabi_errno_addr
    _printf_intcommon.o(.text) refers (Weak) to _printf_pad.o(.text) for _printf_pre_padding
    _printf_intcommon.o(.text) refers (Weak) to _printf_pad.o(.text) for _printf_pre_padding
    _printf_intcommon.o(.text) refers (Weak) to _printf_pad.o(.text) for _printf_post_padding
    _printf_fp_dec.o(.text) refers (Special) to usenofp.o(x$fpl$usenofp) for __I$use$fp
    _printf_fp_dec.o(.text) refers (Special) to lc_numeric_c.o(locale$$code) for _get_lc_numeric
    _printf_fp_dec.o(.text) refers to bigflt0.o(.text) for _btod_etento
    _printf_fp_dec.o(.text) refers to btod.o(CL$$btod_d2e) for _btod_d2e
    _printf_fp_dec.o(.text) refers to btod.o(CL$$btod_ediv) for _btod_ediv
    _printf_fp_dec.o(.text) refers to btod.o(CL$$btod_emul) for _btod_emul
    _printf_fp_dec.o(.text) refers to lludiv10.o(.text) for _ll_udiv10
    _printf_fp_dec.o(.text) refers to fpclassify.o(i.__ARM_fpclassify) for __ARM_fpclassify
    _printf_fp_dec.o(.text) refers to _printf_fp_infnan.o(.text) for _printf_fp_infnan
    _printf_fp_dec.o(.text) refers (Weak) to _printf_pad.o(.text) for _printf_pre_padding
    _printf_fp_dec.o(.text) refers (Weak) to _printf_pad.o(.text) for _printf_pre_padding
    _printf_fp_dec.o(.text) refers to rt_locale_intlibspace.o(.text) for __rt_locale
    _printf_fp_dec.o(.text) refers (Weak) to _printf_pad.o(.text) for _printf_post_padding
    _printf_char_common.o(.text) refers to __printf_flags_ss_wp.o(.text) for __printf
    _printf_char.o(.text) refers (Weak) to _printf_str.o(.text) for _printf_str
    _printf_char_file.o(.text) refers to _printf_char_common.o(.text) for _printf_char_common
    _printf_char_file.o(.text) refers to ferror.o(.text) for ferror
    _printf_char_file.o(.text) refers to fputc.o(i.fputc) for fputc
    _printf_wctomb.o(.text) refers (Special) to _printf_wchar.o(.text) for _printf_lcs_common
    _printf_wctomb.o(.text) refers to _wcrtomb.o(.text) for _wcrtomb
    _printf_wctomb.o(.text) refers (Weak) to _printf_pad.o(.text) for _printf_pre_padding
    _printf_wctomb.o(.text) refers (Weak) to _printf_pad.o(.text) for _printf_post_padding
    _printf_wctomb.o(.text) refers to _printf_wctomb.o(.constdata) for .constdata
    _printf_wctomb.o(.constdata) refers (Special) to _printf_wchar.o(.text) for _printf_lcs_common
    _printf_longlong_dec.o(.text) refers to lludiv10.o(.text) for _ll_udiv10
    _printf_longlong_dec.o(.text) refers to _printf_intcommon.o(.text) for _printf_int_common
    _printf_oct_ll.o(.text) refers to _printf_intcommon.o(.text) for _printf_int_common
    _printf_oct_int.o(.text) refers (Weak) to _printf_truncate.o(.text) for _printf_truncate_unsigned
    _printf_oct_int.o(.text) refers to _printf_intcommon.o(.text) for _printf_int_common
    _printf_oct_int_ll.o(.text) refers to _printf_intcommon.o(.text) for _printf_int_common
    _printf_oct_int_ll.o(.text) refers (Weak) to _printf_truncate.o(.text) for _printf_truncate_unsigned
    _printf_c.o(.ARM.Collect$$_printf_percent$$00000013) refers (Weak) to _printf_char.o(.text) for _printf_char
    _printf_n.o(.ARM.Collect$$_printf_percent$$00000001) refers (Weak) to _printf_charcount.o(.text) for _printf_charcount
    _printf_p.o(.ARM.Collect$$_printf_percent$$00000002) refers (Weak) to _printf_hex_int_ll_ptr.o(.text) for _printf_hex_ptr
    _printf_o.o(.ARM.Collect$$_printf_percent$$0000000B) refers (Weak) to _printf_oct_int_ll.o(.text) for _printf_int_oct
    _printf_i.o(.ARM.Collect$$_printf_percent$$00000008) refers (Weak) to _printf_dec.o(.text) for _printf_int_dec
    _printf_u.o(.ARM.Collect$$_printf_percent$$0000000A) refers (Weak) to _printf_dec.o(.text) for _printf_int_dec
    _printf_g.o(.ARM.Collect$$_printf_percent$$00000005) refers (Weak) to printf1.o(x$fpl$printf1) for _printf_fp_dec
    _printf_lli.o(.ARM.Collect$$_printf_percent$$0000000D) refers (Special) to _printf_ll.o(.ARM.Collect$$_printf_percent$$00000007) for _printf_ll
    _printf_lli.o(.ARM.Collect$$_printf_percent$$0000000D) refers (Weak) to _printf_longlong_dec.o(.text) for _printf_longlong_dec
    _printf_lld.o(.ARM.Collect$$_printf_percent$$0000000E) refers (Special) to _printf_ll.o(.ARM.Collect$$_printf_percent$$00000007) for _printf_ll
    _printf_lld.o(.ARM.Collect$$_printf_percent$$0000000E) refers (Weak) to _printf_longlong_dec.o(.text) for _printf_longlong_dec
    _printf_llu.o(.ARM.Collect$$_printf_percent$$0000000F) refers (Special) to _printf_ll.o(.ARM.Collect$$_printf_percent$$00000007) for _printf_ll
    _printf_llu.o(.ARM.Collect$$_printf_percent$$0000000F) refers (Weak) to _printf_longlong_dec.o(.text) for _printf_longlong_dec
    _printf_lc.o(.ARM.Collect$$_printf_percent$$00000015) refers (Special) to _printf_l.o(.ARM.Collect$$_printf_percent$$00000012) for _printf_l
    _printf_lc.o(.ARM.Collect$$_printf_percent$$00000015) refers (Weak) to _printf_wchar.o(.text) for _printf_wchar
    _printf_ls.o(.ARM.Collect$$_printf_percent$$00000016) refers (Special) to _printf_l.o(.ARM.Collect$$_printf_percent$$00000012) for _printf_l
    _printf_ls.o(.ARM.Collect$$_printf_percent$$00000016) refers (Weak) to _printf_wchar.o(.text) for _printf_wstring
    _printf_llo.o(.ARM.Collect$$_printf_percent$$00000010) refers (Special) to _printf_ll.o(.ARM.Collect$$_printf_percent$$00000007) for _printf_ll
    _printf_llo.o(.ARM.Collect$$_printf_percent$$00000010) refers (Weak) to _printf_oct_int_ll.o(.text) for _printf_ll_oct
    _printf_llx.o(.ARM.Collect$$_printf_percent$$00000011) refers (Special) to _printf_ll.o(.ARM.Collect$$_printf_percent$$00000007) for _printf_ll
    _printf_llx.o(.ARM.Collect$$_printf_percent$$00000011) refers (Weak) to _printf_hex_int_ll_ptr.o(.text) for _printf_ll_hex
    strtol.o(.text) refers to rt_ctype_table.o(.text) for __rt_ctype_table
    strtol.o(.text) refers to _strtoul.o(.text) for _strtoul
    strtol.o(.text) refers to rt_errno_addr_intlibspace.o(.text) for __aeabi_errno_addr
    stdio_streams.o(.bss) refers (Special) to initio.o(.text) for _initio
    stdio_streams.o(.bss) refers (Special) to initio.o(.text) for _initio
    stdio_streams.o(.bss) refers (Special) to initio.o(.text) for _initio
    stdio_streams.o(.data) refers (Special) to initio.o(.text) for _initio
    stdio_streams.o(.data) refers (Special) to initio.o(.text) for _initio
    stdio_streams.o(.data) refers (Special) to initio.o(.text) for _initio
    _get_argv.o(.text) refers (Special) to hrguard.o(.text) for __heap_region$guard
    _get_argv.o(.text) refers to h1_alloc.o(.text) for malloc
    _get_argv.o(.text) refers to defsig_rtmem_outer.o(.text) for __rt_SIGRTMEM
    _get_argv.o(.text) refers to sys_command.o(.text) for _sys_command_string
    libinit2.o(.ARM.Collect$$libinit$$00000005) refers (Weak) to init_alloc.o(.text) for _init_alloc
    libinit2.o(.ARM.Collect$$libinit$$0000000F) refers (Weak) to rt_locale_intlibspace.o(.text) for __rt_locale
    libinit2.o(.ARM.Collect$$libinit$$00000010) refers to libinit2.o(.ARM.Collect$$libinit$$0000000F) for .ARM.Collect$$libinit$$0000000F
    libinit2.o(.ARM.Collect$$libinit$$00000012) refers to libinit2.o(.ARM.Collect$$libinit$$0000000F) for .ARM.Collect$$libinit$$0000000F
    libinit2.o(.ARM.Collect$$libinit$$00000012) refers (Weak) to lc_ctype_c.o(locale$$code) for _get_lc_ctype
    libinit2.o(.ARM.Collect$$libinit$$00000014) refers to libinit2.o(.ARM.Collect$$libinit$$0000000F) for .ARM.Collect$$libinit$$0000000F
    libinit2.o(.ARM.Collect$$libinit$$00000016) refers to libinit2.o(.ARM.Collect$$libinit$$0000000F) for .ARM.Collect$$libinit$$0000000F
    libinit2.o(.ARM.Collect$$libinit$$00000016) refers (Weak) to lc_numeric_c.o(locale$$code) for _get_lc_numeric
    libinit2.o(.ARM.Collect$$libinit$$00000018) refers to libinit2.o(.ARM.Collect$$libinit$$0000000F) for .ARM.Collect$$libinit$$0000000F
    libinit2.o(.ARM.Collect$$libinit$$00000024) refers (Weak) to initio.o(.text) for _initio
    libinit2.o(.ARM.Collect$$libinit$$00000026) refers to argv_veneer.o(.emb_text) for __ARM_argv_veneer
    libinit2.o(.ARM.Collect$$libinit$$00000027) refers to argv_veneer.o(.emb_text) for __ARM_argv_veneer
    dcmpi.o(x$fpl$dcmpinf) refers (Special) to usenofp.o(x$fpl$usenofp) for __I$use$fp
    ddiv.o(x$fpl$drdiv) refers (Special) to usenofp.o(x$fpl$usenofp) for __I$use$fp
    ddiv.o(x$fpl$drdiv) refers to ddiv.o(x$fpl$ddiv) for ddiv_entry
    ddiv.o(x$fpl$ddiv) refers (Special) to usenofp.o(x$fpl$usenofp) for __I$use$fp
    ddiv.o(x$fpl$ddiv) refers to dretinf.o(x$fpl$dretinf) for __fpl_dretinf
    ddiv.o(x$fpl$ddiv) refers to dnaninf.o(x$fpl$dnaninf) for __fpl_dnaninf
    dnaninf.o(x$fpl$dnaninf) refers (Special) to usenofp.o(x$fpl$usenofp) for __I$use$fp
    dretinf.o(x$fpl$dretinf) refers (Special) to usenofp.o(x$fpl$usenofp) for __I$use$fp
    fnaninf.o(x$fpl$fnaninf) refers (Special) to usenofp.o(x$fpl$usenofp) for __I$use$fp
    fretinf.o(x$fpl$fretinf) refers (Special) to usenofp.o(x$fpl$usenofp) for __I$use$fp
    scalbn.o(x$fpl$scalbn) refers (Special) to usenofp.o(x$fpl$usenofp) for __I$use$fp
    scalbn.o(x$fpl$scalbn) refers to dcheck1.o(x$fpl$dcheck1) for __fpl_dcheck_NaN1
    dunder.o(i.__mathlib_dbl_divzero) refers to ddiv.o(x$fpl$ddiv) for __aeabi_ddiv
    dunder.o(i.__mathlib_dbl_infnan) refers to scalbn.o(x$fpl$scalbn) for __ARM_scalbn
    dunder.o(i.__mathlib_dbl_infnan2) refers to daddsub_clz.o(x$fpl$dadd) for __aeabi_dadd
    dunder.o(i.__mathlib_dbl_invalid) refers to ddiv.o(x$fpl$ddiv) for __aeabi_ddiv
    dunder.o(i.__mathlib_dbl_overflow) refers to scalbn.o(x$fpl$scalbn) for __ARM_scalbn
    dunder.o(i.__mathlib_dbl_posinfnan) refers to dmul.o(x$fpl$dmul) for __aeabi_dmul
    dunder.o(i.__mathlib_dbl_underflow) refers to scalbn.o(x$fpl$scalbn) for __ARM_scalbn
    fpclassify.o(i.__ARM_fpclassify) refers (Special) to usenofp.o(x$fpl$usenofp) for __I$use$fp
    poly.o(i.__kernel_poly) refers (Special) to usenofp.o(x$fpl$usenofp) for __I$use$fp
    poly.o(i.__kernel_poly) refers to dmul.o(x$fpl$dmul) for __aeabi_dmul
    poly.o(i.__kernel_poly) refers to daddsub_clz.o(x$fpl$dadd) for __aeabi_dadd
    qnan.o(.constdata) refers (Special) to usenofp.o(x$fpl$usenofp) for __I$use$fp
    sqrt.o(i.__softfp_sqrt) refers (Special) to usenofp.o(x$fpl$usenofp) for __I$use$fp
    sqrt.o(i.__softfp_sqrt) refers to dsqrt_noumaal.o(x$fpl$dsqrt) for _dsqrt
    sqrt.o(i.__softfp_sqrt) refers to _rserrno.o(.text) for __set_errno
    sqrt.o(i.sqrt) refers (Special) to usenofp.o(x$fpl$usenofp) for __I$use$fp
    sqrt.o(i.sqrt) refers to dsqrt_noumaal.o(x$fpl$dsqrt) for _dsqrt
    sqrt.o(i.sqrt) refers to _rserrno.o(.text) for __set_errno
    sqrt_x.o(i.____softfp_sqrt$lsc) refers (Special) to usenofp.o(x$fpl$usenofp) for __I$use$fp
    sqrt_x.o(i.____softfp_sqrt$lsc) refers to dleqf.o(x$fpl$dleqf) for __aeabi_cdcmple
    sqrt_x.o(i.____softfp_sqrt$lsc) refers to _rserrno.o(.text) for __set_errno
    sqrt_x.o(i.____softfp_sqrt$lsc) refers to dsqrt_noumaal.o(x$fpl$dsqrt) for _dsqrt
    sqrt_x.o(i.__sqrt$lsc) refers (Special) to usenofp.o(x$fpl$usenofp) for __I$use$fp
    sqrt_x.o(i.__sqrt$lsc) refers to dleqf.o(x$fpl$dleqf) for __aeabi_cdcmple
    sqrt_x.o(i.__sqrt$lsc) refers to _rserrno.o(.text) for __set_errno
    sqrt_x.o(i.__sqrt$lsc) refers to dsqrt_noumaal.o(x$fpl$dsqrt) for _dsqrt
    sys_command.o(.text) refers (Special) to use_no_semi.o(.text) for __I$use$semihosting
    sys_command.o(.text) refers (Special) to indicate_semi.o(.text) for __semihosting_library_function
    libspace.o(.text) refers to libspace.o(.bss) for __libspace_start
    __rtentry2.o(.ARM.Collect$$rtentry$$00000008) refers to boardinit2.o(.text) for _platform_post_stackheap_init
    __rtentry2.o(.ARM.Collect$$rtentry$$0000000A) refers to libinit.o(.ARM.Collect$$libinit$$00000000) for __rt_lib_init
    __rtentry2.o(.ARM.Collect$$rtentry$$0000000B) refers to boardinit3.o(.text) for _platform_post_lib_init
    __rtentry2.o(.ARM.Collect$$rtentry$$0000000D) refers to main.o(i.main) for main
    __rtentry2.o(.ARM.Collect$$rtentry$$0000000D) refers to exit.o(.text) for exit
    __rtentry2.o(.ARM.exidx) refers to __rtentry2.o(.ARM.Collect$$rtentry$$00000001) for .ARM.Collect$$rtentry$$00000001
    __rtentry2.o(.ARM.exidx) refers to __rtentry2.o(.ARM.Collect$$rtentry$$00000008) for .ARM.Collect$$rtentry$$00000008
    __rtentry2.o(.ARM.exidx) refers to __rtentry2.o(.ARM.Collect$$rtentry$$0000000A) for .ARM.Collect$$rtentry$$0000000A
    __rtentry2.o(.ARM.exidx) refers to __rtentry2.o(.ARM.Collect$$rtentry$$0000000B) for .ARM.Collect$$rtentry$$0000000B
    __rtentry2.o(.ARM.exidx) refers to __rtentry2.o(.ARM.Collect$$rtentry$$0000000D) for .ARM.Collect$$rtentry$$0000000D
    __rtentry4.o(.ARM.Collect$$rtentry$$00000004) refers to sys_stackheap_outer.o(.text) for __user_setup_stackheap
    __rtentry4.o(.ARM.exidx) refers to __rtentry4.o(.ARM.Collect$$rtentry$$00000004) for .ARM.Collect$$rtentry$$00000004
    rt_locale.o(.text) refers to rt_locale.o(.bss) for __rt_locale_data
    rt_locale_intlibspace.o(.text) refers to libspace.o(.bss) for __libspace_start
    maybetermalloc2.o(.emb_text) refers (Special) to term_alloc.o(.text) for _terminate_alloc
    h1_extend.o(.text) refers to h1_free.o(.text) for free
    h1_extend_mt.o(.text) refers to h1_free_mt.o(.text) for _free_internal
    _printf_fp_infnan.o(.text) refers (Weak) to _printf_pad.o(.text) for _printf_pre_padding
    _printf_fp_infnan.o(.text) refers (Weak) to _printf_pad.o(.text) for _printf_post_padding
    _printf_wchar.o(.text) refers (Weak) to _printf_wctomb.o(.text) for _printf_wctomb
    _strtoul.o(.text) refers to _chval.o(.text) for _chval
    _strtoul.o(.text) refers to rt_errno_addr_intlibspace.o(.text) for __aeabi_errno_addr
    bigflt0.o(.text) refers (Special) to usenofp.o(x$fpl$usenofp) for __I$use$fp
    bigflt0.o(.text) refers to btod.o(CL$$btod_emul) for _btod_emul
    bigflt0.o(.text) refers to btod.o(CL$$btod_ediv) for _btod_ediv
    bigflt0.o(.text) refers to bigflt0.o(.constdata) for .constdata
    bigflt0.o(.constdata) refers (Special) to usenofp.o(x$fpl$usenofp) for __I$use$fp
    btod.o(CL$$btod_d2e) refers (Special) to usenofp.o(x$fpl$usenofp) for __I$use$fp
    btod.o(CL$$btod_d2e) refers to btod.o(CL$$btod_d2e_norm_op1) for _d2e_norm_op1
    btod.o(CL$$btod_d2e_norm_op1) refers (Special) to usenofp.o(x$fpl$usenofp) for __I$use$fp
    btod.o(CL$$btod_d2e_norm_op1) refers to btod.o(CL$$btod_d2e_denorm_low) for _d2e_denorm_low
    btod.o(CL$$btod_d2e_denorm_low) refers (Special) to usenofp.o(x$fpl$usenofp) for __I$use$fp
    btod.o(CL$$btod_emul) refers (Special) to usenofp.o(x$fpl$usenofp) for __I$use$fp
    btod.o(CL$$btod_emul) refers to btod.o(CL$$btod_mult_common) for __btod_mult_common
    btod.o(CL$$btod_emul) refers to btod.o(CL$$btod_e2e) for _e2e
    btod.o(CL$$btod_ediv) refers (Special) to usenofp.o(x$fpl$usenofp) for __I$use$fp
    btod.o(CL$$btod_ediv) refers to btod.o(CL$$btod_div_common) for __btod_div_common
    btod.o(CL$$btod_ediv) refers to btod.o(CL$$btod_e2e) for _e2e
    btod.o(CL$$btod_emuld) refers (Special) to usenofp.o(x$fpl$usenofp) for __I$use$fp
    btod.o(CL$$btod_emuld) refers to btod.o(CL$$btod_mult_common) for __btod_mult_common
    btod.o(CL$$btod_emuld) refers to btod.o(CL$$btod_e2d) for _e2d
    btod.o(CL$$btod_edivd) refers (Special) to usenofp.o(x$fpl$usenofp) for __I$use$fp
    btod.o(CL$$btod_edivd) refers to btod.o(CL$$btod_div_common) for __btod_div_common
    btod.o(CL$$btod_edivd) refers to btod.o(CL$$btod_e2d) for _e2d
    btod.o(CL$$btod_e2e) refers (Special) to usenofp.o(x$fpl$usenofp) for __I$use$fp
    btod.o(CL$$btod_e2d) refers (Special) to usenofp.o(x$fpl$usenofp) for __I$use$fp
    btod.o(CL$$btod_e2d) refers to btod.o(CL$$btod_e2e) for _e2e
    btod.o(CL$$btod_mult_common) refers (Special) to usenofp.o(x$fpl$usenofp) for __I$use$fp
    btod.o(CL$$btod_div_common) refers (Special) to usenofp.o(x$fpl$usenofp) for __I$use$fp
    fputc.o(i.fputc) refers to flsbuf.o(.text) for __flsbuf_byte
    initio.o(.text) refers (Special) to libinit2.o(.ARM.Collect$$libinit$$00000024) for __rt_lib_init_stdio_2
    initio.o(.text) refers (Special) to libshutdown2.o(.ARM.Collect$$libshutdown$$00000002) for __rt_lib_shutdown_stdio_2
    initio.o(.text) refers to rt_memclr_w.o(.text) for __aeabi_memclr4
    initio.o(.text) refers to fopen.o(.text) for freopen
    initio.o(.text) refers to defsig_rtred_outer.o(.text) for __rt_SIGRTRED
    initio.o(.text) refers to setvbuf.o(.text) for setvbuf
    initio.o(.text) refers to fclose.o(.text) for _fclose_internal
    initio.o(.text) refers to h1_free.o(.text) for free
    initio.o(.text) refers to stdio_streams.o(.bss) for __stdin
    initio.o(.text) refers to stdio_streams.o(.bss) for __stdout
    initio.o(.text) refers to stdio_streams.o(.bss) for __stderr
    initio.o(.text) refers to stdio_streams.o(.data) for __aeabi_stdin
    initio.o(.text) refers to stdio_streams.o(.data) for __aeabi_stdout
    initio.o(.text) refers to stdio_streams.o(.data) for __aeabi_stderr
    initio.o(.text) refers to sys_io.o(.constdata) for __stdin_name
    initio.o(.text) refers to sys_io.o(.constdata) for __stdout_name
    initio.o(.text) refers to sys_io.o(.constdata) for __stderr_name
    initio_locked.o(.text) refers (Special) to libinit2.o(.ARM.Collect$$libinit$$00000024) for __rt_lib_init_stdio_2
    initio_locked.o(.text) refers (Special) to libshutdown2.o(.ARM.Collect$$libshutdown$$00000002) for __rt_lib_shutdown_stdio_2
    initio_locked.o(.text) refers to rt_memclr_w.o(.text) for __aeabi_memclr4
    initio_locked.o(.text) refers to fopen.o(.text) for freopen
    initio_locked.o(.text) refers to defsig_rtred_outer.o(.text) for __rt_SIGRTRED
    initio_locked.o(.text) refers to setvbuf.o(.text) for setvbuf
    initio_locked.o(.text) refers to fclose.o(.text) for _fclose_internal
    initio_locked.o(.text) refers to h1_free.o(.text) for free
    initio_locked.o(.text) refers to stdio_streams.o(.bss) for __stdin
    initio_locked.o(.text) refers to stdio_streams.o(.bss) for __stdout
    initio_locked.o(.text) refers to stdio_streams.o(.bss) for __stderr
    initio_locked.o(.text) refers to stdio_streams.o(.data) for __aeabi_stdin
    initio_locked.o(.text) refers to stdio_streams.o(.data) for __aeabi_stdout
    initio_locked.o(.text) refers to stdio_streams.o(.data) for __aeabi_stderr
    initio_locked.o(.text) refers to streamlock.o(.data) for _stream_list_lock
    initio_locked.o(.text) refers to sys_io.o(.constdata) for __stdin_name
    initio_locked.o(.text) refers to sys_io.o(.constdata) for __stdout_name
    initio_locked.o(.text) refers to sys_io.o(.constdata) for __stderr_name
    _wcrtomb.o(.text) refers to rt_ctype_table.o(.text) for __rt_ctype_table
    lc_ctype_c.o(locale$$data) refers (Special) to libinit2.o(.ARM.Collect$$libinit$$00000012) for __rt_lib_init_lc_ctype_2
    lc_ctype_c.o(locale$$code) refers (Special) to libinit2.o(.ARM.Collect$$libinit$$00000012) for __rt_lib_init_lc_ctype_2
    lc_ctype_c.o(locale$$code) refers to strcmpv7m.o(.text) for strcmp
    lc_ctype_c.o(locale$$code) refers to lc_ctype_c.o(locale$$data) for __lcctype_c_name
    lc_numeric_c.o(locale$$data) refers (Special) to libinit2.o(.ARM.Collect$$libinit$$00000016) for __rt_lib_init_lc_numeric_2
    lc_numeric_c.o(locale$$code) refers (Special) to libinit2.o(.ARM.Collect$$libinit$$00000016) for __rt_lib_init_lc_numeric_2
    lc_numeric_c.o(locale$$code) refers to strcmpv7m.o(.text) for strcmp
    lc_numeric_c.o(locale$$code) refers to lc_numeric_c.o(locale$$data) for __lcnum_c_name
    defsig_rtmem_outer.o(.text) refers to defsig_rtmem_inner.o(.text) for __rt_SIGRTMEM_inner
    defsig_rtmem_outer.o(.text) refers to defsig_exit.o(.text) for __sig_exit
    defsig_rtmem_formal.o(.text) refers to rt_raise.o(.text) for __rt_raise
    heapauxa.o(.text) refers to heapauxa.o(.data) for .data
    argv_veneer.o(.emb_text) refers to no_argv.o(.text) for __ARM_get_argv
    dcheck1.o(x$fpl$dcheck1) refers (Special) to usenofp.o(x$fpl$usenofp) for __I$use$fp
    dcheck1.o(x$fpl$dcheck1) refers to retnan.o(x$fpl$retnan) for __fpl_return_NaN
    dsqrt_noumaal.o(x$fpl$dsqrt) refers (Special) to usenofp.o(x$fpl$usenofp) for __I$use$fp
    dsqrt_noumaal.o(x$fpl$dsqrt) refers to dnaninf.o(x$fpl$dnaninf) for __fpl_dnaninf
    istatus.o(x$fpl$ieeestatus) refers (Special) to usenofp.o(x$fpl$usenofp) for __I$use$fp
    sys_io.o(.text) refers (Special) to use_no_semi.o(.text) for __I$use$semihosting
    sys_io.o(.text) refers (Special) to indicate_semi.o(.text) for __semihosting_library_function
    sys_io.o(.text) refers to strlen.o(.text) for strlen
    sys_io.o(.constdata) refers (Special) to use_no_semi.o(.text) for __I$use$semihosting
    sys_io.o(.constdata) refers (Special) to indicate_semi.o(.text) for __semihosting_library_function
    sys_io.o(.constdata) refers (Special) to use_no_semi.o(.text) for __I$use$semihosting
    sys_io.o(.constdata) refers (Special) to indicate_semi.o(.text) for __semihosting_library_function
    sys_io.o(.constdata) refers (Special) to use_no_semi.o(.text) for __I$use$semihosting
    sys_io.o(.constdata) refers (Special) to indicate_semi.o(.text) for __semihosting_library_function
    sys_stackheap_outer.o(.text) refers to libspace.o(.text) for __user_perproc_libspace
    sys_stackheap_outer.o(.text) refers to startup_stm32f10x_hd.o(.text) for __user_initial_stackheap
    rt_raise.o(.text) refers to __raise.o(.text) for __raise
    rt_raise.o(.text) refers to sys_exit.o(.text) for _sys_exit
    term_alloc.o(.text) refers (Special) to libshutdown2.o(.ARM.Collect$$libshutdown$$0000000D) for __rt_lib_shutdown_heap_2
    term_alloc.o(.text) refers to rt_heap_descriptor_intlibspace.o(.text) for __rt_heap_descriptor
    term_alloc.o(.text) refers to h1_final.o(.text) for __Heap_Finalize
    flsbuf.o(.text) refers to stdio.o(.text) for _deferredlazyseek
    flsbuf.o(.text) refers to sys_io.o(.text) for _sys_flen
    flsbuf.o(.text) refers to h1_alloc.o(.text) for malloc
    streamlock.o(.data) refers (Special) to initio.o(.text) for _initio
    fopen.o(.text) refers to fclose.o(.text) for _fclose_internal
    fopen.o(.text) refers to sys_io.o(.text) for _sys_open
    fopen.o(.text) refers to fseek.o(.text) for _fseek
    fopen.o(.text) refers to h1_alloc.o(.text) for malloc
    fopen.o(.text) refers to rt_memclr_w.o(.text) for __aeabi_memclr4
    fopen.o(.text) refers to stdio_streams.o(.bss) for __stdin
    fclose.o(.text) refers to stdio.o(.text) for _fflush
    fclose.o(.text) refers to sys_io.o(.text) for _sys_close
    fclose.o(.text) refers to h1_free.o(.text) for free
    fclose.o(.text) refers to rt_memclr_w.o(.text) for __aeabi_memclr4
    fopen_locked.o(.text) refers to fclose.o(.text) for _fclose_internal
    fopen_locked.o(.text) refers to sys_io.o(.text) for _sys_open
    fopen_locked.o(.text) refers to fseek.o(.text) for _fseek
    fopen_locked.o(.text) refers to h1_alloc.o(.text) for malloc
    fopen_locked.o(.text) refers to rt_memclr_w.o(.text) for __aeabi_memclr4
    fopen_locked.o(.text) refers to streamlock.o(.data) for _stream_list_lock
    fopen_locked.o(.text) refers to stdio_streams.o(.bss) for __stdin
    exit.o(.text) refers to rtexit.o(.ARM.Collect$$rtexit$$00000000) for __rt_exit
    defsig_exit.o(.text) refers to sys_exit.o(.text) for _sys_exit
    defsig_rtred_outer.o(.text) refers to defsig_rtred_inner.o(.text) for __rt_SIGRTRED_inner
    defsig_rtred_outer.o(.text) refers to defsig_exit.o(.text) for __sig_exit
    defsig_rtred_formal.o(.text) refers to rt_raise.o(.text) for __rt_raise
    defsig_rtmem_inner.o(.text) refers to defsig_general.o(.text) for __default_signal_display
    _get_argv_nomalloc.o(.text) refers (Special) to hrguard.o(.text) for __heap_region$guard
    _get_argv_nomalloc.o(.text) refers to defsig_rtmem_outer.o(.text) for __rt_SIGRTMEM
    _get_argv_nomalloc.o(.text) refers to sys_command.o(.text) for _sys_command_string
    libinit.o(.ARM.Collect$$libinit$$00000000) refers (Special) to libinit2.o(.ARM.Collect$$libinit$$0000002E) for __rt_lib_init_alloca_1
    libinit.o(.ARM.Collect$$libinit$$00000000) refers (Special) to libinit2.o(.ARM.Collect$$libinit$$0000002C) for __rt_lib_init_argv_1
    libinit.o(.ARM.Collect$$libinit$$00000000) refers (Special) to libinit2.o(.ARM.Collect$$libinit$$0000001B) for __rt_lib_init_atexit_1
    libinit.o(.ARM.Collect$$libinit$$00000000) refers (Special) to libinit2.o(.ARM.Collect$$libinit$$00000021) for __rt_lib_init_clock_1
    libinit.o(.ARM.Collect$$libinit$$00000000) refers (Special) to libinit2.o(.ARM.Collect$$libinit$$00000032) for __rt_lib_init_cpp_1
    libinit.o(.ARM.Collect$$libinit$$00000000) refers (Special) to libinit2.o(.ARM.Collect$$libinit$$00000030) for __rt_lib_init_exceptions_1
    libinit.o(.ARM.Collect$$libinit$$00000000) refers (Special) to libinit2.o(.ARM.Collect$$libinit$$00000002) for __rt_lib_init_fp_1
    libinit.o(.ARM.Collect$$libinit$$00000000) refers (Special) to libinit2.o(.ARM.Collect$$libinit$$0000001F) for __rt_lib_init_fp_trap_1
    libinit.o(.ARM.Collect$$libinit$$00000000) refers (Special) to libinit2.o(.ARM.Collect$$libinit$$00000023) for __rt_lib_init_getenv_1
    libinit.o(.ARM.Collect$$libinit$$00000000) refers (Special) to libinit2.o(.ARM.Collect$$libinit$$0000000A) for __rt_lib_init_heap_1
    libinit.o(.ARM.Collect$$libinit$$00000000) refers (Special) to libinit2.o(.ARM.Collect$$libinit$$00000011) for __rt_lib_init_lc_collate_1
    libinit.o(.ARM.Collect$$libinit$$00000000) refers (Special) to libinit2.o(.ARM.Collect$$libinit$$00000013) for __rt_lib_init_lc_ctype_1
    libinit.o(.ARM.Collect$$libinit$$00000000) refers (Special) to libinit2.o(.ARM.Collect$$libinit$$00000015) for __rt_lib_init_lc_monetary_1
    libinit.o(.ARM.Collect$$libinit$$00000000) refers (Special) to libinit2.o(.ARM.Collect$$libinit$$00000017) for __rt_lib_init_lc_numeric_1
    libinit.o(.ARM.Collect$$libinit$$00000000) refers (Special) to libinit2.o(.ARM.Collect$$libinit$$00000019) for __rt_lib_init_lc_time_1
    libinit.o(.ARM.Collect$$libinit$$00000000) refers (Special) to libinit2.o(.ARM.Collect$$libinit$$00000004) for __rt_lib_init_preinit_1
    libinit.o(.ARM.Collect$$libinit$$00000000) refers (Special) to libinit2.o(.ARM.Collect$$libinit$$0000000E) for __rt_lib_init_rand_1
    libinit.o(.ARM.Collect$$libinit$$00000000) refers (Special) to libinit2.o(.ARM.Collect$$libinit$$00000033) for __rt_lib_init_return
    libinit.o(.ARM.Collect$$libinit$$00000000) refers (Special) to libinit2.o(.ARM.Collect$$libinit$$0000001D) for __rt_lib_init_signal_1
    libinit.o(.ARM.Collect$$libinit$$00000000) refers (Special) to libinit2.o(.ARM.Collect$$libinit$$00000025) for __rt_lib_init_stdio_1
    libinit.o(.ARM.Collect$$libinit$$00000000) refers (Special) to libinit2.o(.ARM.Collect$$libinit$$0000000C) for __rt_lib_init_user_alloc_1
    libshutdown2.o(.ARM.Collect$$libshutdown$$00000002) refers (Weak) to initio.o(.text) for _terminateio
    libshutdown2.o(.ARM.Collect$$libshutdown$$0000000C) refers (Weak) to term_alloc.o(.text) for _terminate_alloc
    flsbuf_fwide.o(.text) refers to flsbuf.o(.text) for __flsbuf
    retnan.o(x$fpl$retnan) refers (Special) to usenofp.o(x$fpl$usenofp) for __I$use$fp
    retnan.o(x$fpl$retnan) refers to trapv.o(x$fpl$trapveneer) for __fpl_cmpreturn
    sys_exit.o(.text) refers (Special) to use_no_semi.o(.text) for __I$use$semihosting
    sys_exit.o(.text) refers (Special) to indicate_semi.o(.text) for __semihosting_library_function
    rtexit.o(.ARM.Collect$$rtexit$$00000000) refers (Special) to rtexit2.o(.ARM.Collect$$rtexit$$00000004) for __rt_exit_exit
    rtexit.o(.ARM.Collect$$rtexit$$00000000) refers (Special) to rtexit2.o(.ARM.Collect$$rtexit$$00000003) for __rt_exit_ls
    rtexit.o(.ARM.Collect$$rtexit$$00000000) refers (Special) to rtexit2.o(.ARM.Collect$$rtexit$$00000002) for __rt_exit_prels_1
    rtexit.o(.ARM.exidx) refers (Special) to rtexit2.o(.ARM.Collect$$rtexit$$00000004) for __rt_exit_exit
    rtexit.o(.ARM.exidx) refers (Special) to rtexit2.o(.ARM.Collect$$rtexit$$00000003) for __rt_exit_ls
    rtexit.o(.ARM.exidx) refers (Special) to rtexit2.o(.ARM.Collect$$rtexit$$00000002) for __rt_exit_prels_1
    rtexit.o(.ARM.exidx) refers to rtexit.o(.ARM.Collect$$rtexit$$00000000) for .ARM.Collect$$rtexit$$00000000
    _printf_char_file_locked.o(.text) refers to _printf_char_common.o(.text) for _printf_char_common
    _printf_char_file_locked.o(.text) refers to fputc.o(i._fputc$unlocked) for _fputc$unlocked
    fseek.o(.text) refers to sys_io.o(.text) for _sys_istty
    fseek.o(.text) refers to ftell.o(.text) for _ftell_internal
    fseek.o(.text) refers to stdio.o(.text) for _seterr
    stdio.o(.text) refers to sys_io.o(.text) for _sys_seek
    fwritefast.o(.text) refers to stdio.o(.text) for _writebuf
    fwritefast.o(.text) refers to flsbuf.o(.text) for __flsbuf_byte
    fwritefast.o(.text) refers to rt_memcpy_v6.o(.text) for __aeabi_memcpy
    fwritefast_locked.o(.text) refers to stdio.o(.text) for _writebuf
    fwritefast_locked.o(.text) refers to flsbuf.o(.text) for __flsbuf_byte
    fwritefast_locked.o(.text) refers to rt_memcpy_v6.o(.text) for __aeabi_memcpy
    __raise.o(.text) refers to defsig.o(CL$$defsig) for __default_signal_handler
    defsig_general.o(.text) refers to sys_wrch.o(.text) for _ttywrch
    defsig_rtred_inner.o(.text) refers to defsig_general.o(.text) for __default_signal_display
    assert_stdio.o(.text) refers to fputs.o(.text) for fputs
    assert_stdio.o(.text) refers to fflush.o(.text) for fflush
    assert_stdio.o(.text) refers to stdio_streams.o(.bss) for __stderr
    trapv.o(x$fpl$trapveneer) refers (Special) to usenofp.o(x$fpl$usenofp) for __I$use$fp
    sys_wrch.o(.text) refers (Special) to use_no_semi.o(.text) for __I$use$semihosting
    sys_wrch.o(.text) refers (Special) to indicate_semi.o(.text) for __semihosting_library_function
    rtexit2.o(.ARM.Collect$$rtexit$$00000003) refers to libshutdown.o(.ARM.Collect$$libshutdown$$00000000) for __rt_lib_shutdown
    rtexit2.o(.ARM.Collect$$rtexit$$00000004) refers to sys_exit.o(.text) for _sys_exit
    rtexit2.o(.ARM.exidx) refers to rtexit2.o(.ARM.Collect$$rtexit$$00000001) for .ARM.Collect$$rtexit$$00000001
    rtexit2.o(.ARM.exidx) refers to rtexit2.o(.ARM.Collect$$rtexit$$00000003) for .ARM.Collect$$rtexit$$00000003
    rtexit2.o(.ARM.exidx) refers to rtexit2.o(.ARM.Collect$$rtexit$$00000004) for .ARM.Collect$$rtexit$$00000004
    fflush.o(.text) refers to stdio.o(.text) for _fflush
    fflush.o(.text) refers to fseek.o(.text) for _fseek
    fflush.o(.text) refers to stdio_streams.o(.bss) for __stdin
    fputs.o(.text) refers to fputc.o(i.fputc) for fputc
    ftell.o(.text) refers to rt_errno_addr_intlibspace.o(.text) for __aeabi_errno_addr
    fflush_locked.o(.text) refers to stdio.o(.text) for _fflush
    fflush_locked.o(.text) refers to fseek.o(.text) for _fseek
    fflush_locked.o(.text) refers to fflush.o(.text) for _do_fflush
    fflush_locked.o(.text) refers to streamlock.o(.data) for _stream_list_lock
    fflush_locked.o(.text) refers to stdio_streams.o(.bss) for __stdin
    defsig.o(CL$$defsig) refers to defsig_rtred_inner.o(.text) for __rt_SIGRTRED_inner
    defsig.o(CL$$defsig) refers to defsig_rtmem_inner.o(.text) for __rt_SIGRTMEM_inner
    defsig_abrt_inner.o(.text) refers to defsig_general.o(.text) for __default_signal_display
    defsig_fpe_inner.o(.text) refers to defsig_general.o(.text) for __default_signal_display
    defsig_stak_inner.o(.text) refers to defsig_general.o(.text) for __default_signal_display
    defsig_pvfn_inner.o(.text) refers to defsig_general.o(.text) for __default_signal_display
    defsig_cppl_inner.o(.text) refers to defsig_general.o(.text) for __default_signal_display
    defsig_segv_inner.o(.text) refers to defsig_general.o(.text) for __default_signal_display
    defsig_other.o(.text) refers to defsig_general.o(.text) for __default_signal_display
    libshutdown.o(.ARM.Collect$$libshutdown$$00000000) refers (Special) to libshutdown2.o(.ARM.Collect$$libshutdown$$00000006) for __rt_lib_shutdown_fp_trap_1
    libshutdown.o(.ARM.Collect$$libshutdown$$00000000) refers (Special) to libshutdown2.o(.ARM.Collect$$libshutdown$$0000000E) for __rt_lib_shutdown_heap_1
    libshutdown.o(.ARM.Collect$$libshutdown$$00000000) refers (Special) to libshutdown2.o(.ARM.Collect$$libshutdown$$0000000F) for __rt_lib_shutdown_return
    libshutdown.o(.ARM.Collect$$libshutdown$$00000000) refers (Special) to libshutdown2.o(.ARM.Collect$$libshutdown$$00000009) for __rt_lib_shutdown_signal_1
    libshutdown.o(.ARM.Collect$$libshutdown$$00000000) refers (Special) to libshutdown2.o(.ARM.Collect$$libshutdown$$00000003) for __rt_lib_shutdown_stdio_1
    libshutdown.o(.ARM.Collect$$libshutdown$$00000000) refers (Special) to libshutdown2.o(.ARM.Collect$$libshutdown$$0000000B) for __rt_lib_shutdown_user_alloc_1


==============================================================================

Removing Unused input sections from the image.

    Removing system_stm32f10x.o(i.SystemCoreClockUpdate), (164 bytes).
    Removing sys.o(i.INTX_DISABLE), (4 bytes).
    Removing sys.o(i.INTX_ENABLE), (4 bytes).
    Removing sys.o(i.WFI_SET), (4 bytes).
    Removing timer.o(i.TIM2_Int_Init), (92 bytes).
    Removing timer.o(i.TIM3_Int_Init), (92 bytes).
    Removing timer.o(i.dis_DrawCurve), (124 bytes).
    Removing timer.o(.bss), (100 bytes).
    Removing misc.o(i.NVIC_SetVectorTable), (20 bytes).
    Removing misc.o(i.NVIC_SystemLPConfig), (32 bytes).
    Removing stm32f10x_gpio.o(i.GPIO_AFIODeInit), (20 bytes).
    Removing stm32f10x_gpio.o(i.GPIO_DeInit), (200 bytes).
    Removing stm32f10x_gpio.o(i.GPIO_ETH_MediaInterfaceConfig), (12 bytes).
    Removing stm32f10x_gpio.o(i.GPIO_EXTILineConfig), (64 bytes).
    Removing stm32f10x_gpio.o(i.GPIO_EventOutputCmd), (12 bytes).
    Removing stm32f10x_gpio.o(i.GPIO_EventOutputConfig), (32 bytes).
    Removing stm32f10x_gpio.o(i.GPIO_PinLockConfig), (18 bytes).
    Removing stm32f10x_gpio.o(i.GPIO_PinRemapConfig), (144 bytes).
    Removing stm32f10x_gpio.o(i.GPIO_ReadInputData), (8 bytes).
    Removing stm32f10x_gpio.o(i.GPIO_ReadOutputData), (8 bytes).
    Removing stm32f10x_gpio.o(i.GPIO_ReadOutputDataBit), (18 bytes).
    Removing stm32f10x_gpio.o(i.GPIO_StructInit), (16 bytes).
    Removing stm32f10x_gpio.o(i.GPIO_Write), (4 bytes).
    Removing stm32f10x_gpio.o(i.GPIO_WriteBit), (10 bytes).
    Removing stm32f10x_rcc.o(i.RCC_ADCCLKConfig), (24 bytes).
    Removing stm32f10x_rcc.o(i.RCC_AHBPeriphClockCmd), (32 bytes).
    Removing stm32f10x_rcc.o(i.RCC_APB1PeriphResetCmd), (32 bytes).
    Removing stm32f10x_rcc.o(i.RCC_APB2PeriphResetCmd), (32 bytes).
    Removing stm32f10x_rcc.o(i.RCC_AdjustHSICalibrationValue), (24 bytes).
    Removing stm32f10x_rcc.o(i.RCC_BackupResetCmd), (12 bytes).
    Removing stm32f10x_rcc.o(i.RCC_ClearFlag), (20 bytes).
    Removing stm32f10x_rcc.o(i.RCC_ClearITPendingBit), (12 bytes).
    Removing stm32f10x_rcc.o(i.RCC_ClockSecuritySystemCmd), (12 bytes).
    Removing stm32f10x_rcc.o(i.RCC_DeInit), (76 bytes).
    Removing stm32f10x_rcc.o(i.RCC_GetFlagStatus), (60 bytes).
    Removing stm32f10x_rcc.o(i.RCC_GetITStatus), (24 bytes).
    Removing stm32f10x_rcc.o(i.RCC_GetSYSCLKSource), (16 bytes).
    Removing stm32f10x_rcc.o(i.RCC_HCLKConfig), (24 bytes).
    Removing stm32f10x_rcc.o(i.RCC_HSEConfig), (76 bytes).
    Removing stm32f10x_rcc.o(i.RCC_HSICmd), (12 bytes).
    Removing stm32f10x_rcc.o(i.RCC_ITConfig), (32 bytes).
    Removing stm32f10x_rcc.o(i.RCC_LSEConfig), (52 bytes).
    Removing stm32f10x_rcc.o(i.RCC_LSICmd), (12 bytes).
    Removing stm32f10x_rcc.o(i.RCC_MCOConfig), (12 bytes).
    Removing stm32f10x_rcc.o(i.RCC_PCLK1Config), (24 bytes).
    Removing stm32f10x_rcc.o(i.RCC_PCLK2Config), (24 bytes).
    Removing stm32f10x_rcc.o(i.RCC_PLLCmd), (12 bytes).
    Removing stm32f10x_rcc.o(i.RCC_PLLConfig), (28 bytes).
    Removing stm32f10x_rcc.o(i.RCC_RTCCLKCmd), (12 bytes).
    Removing stm32f10x_rcc.o(i.RCC_RTCCLKConfig), (16 bytes).
    Removing stm32f10x_rcc.o(i.RCC_SYSCLKConfig), (24 bytes).
    Removing stm32f10x_rcc.o(i.RCC_USBCLKConfig), (12 bytes).
    Removing stm32f10x_rcc.o(i.RCC_WaitForHSEStartUp), (56 bytes).
    Removing stm32f10x_usart.o(i.USART_ClearITPendingBit), (30 bytes).
    Removing stm32f10x_usart.o(i.USART_ClockInit), (34 bytes).
    Removing stm32f10x_usart.o(i.USART_ClockStructInit), (12 bytes).
    Removing stm32f10x_usart.o(i.USART_DMACmd), (18 bytes).
    Removing stm32f10x_usart.o(i.USART_DeInit), (156 bytes).
    Removing stm32f10x_usart.o(i.USART_HalfDuplexCmd), (24 bytes).
    Removing stm32f10x_usart.o(i.USART_IrDACmd), (24 bytes).
    Removing stm32f10x_usart.o(i.USART_IrDAConfig), (18 bytes).
    Removing stm32f10x_usart.o(i.USART_LINBreakDetectLengthConfig), (18 bytes).
    Removing stm32f10x_usart.o(i.USART_LINCmd), (24 bytes).
    Removing stm32f10x_usart.o(i.USART_OneBitMethodCmd), (24 bytes).
    Removing stm32f10x_usart.o(i.USART_OverSampling8Cmd), (22 bytes).
    Removing stm32f10x_usart.o(i.USART_ReceiverWakeUpCmd), (24 bytes).
    Removing stm32f10x_usart.o(i.USART_SendBreak), (10 bytes).
    Removing stm32f10x_usart.o(i.USART_SetAddress), (18 bytes).
    Removing stm32f10x_usart.o(i.USART_SetGuardTime), (16 bytes).
    Removing stm32f10x_usart.o(i.USART_SetPrescaler), (16 bytes).
    Removing stm32f10x_usart.o(i.USART_SmartCardCmd), (24 bytes).
    Removing stm32f10x_usart.o(i.USART_SmartCardNACKCmd), (24 bytes).
    Removing stm32f10x_usart.o(i.USART_StructInit), (24 bytes).
    Removing stm32f10x_usart.o(i.USART_WakeUpConfig), (18 bytes).
    Removing stm32f10x_tim.o(i.TI1_Config), (128 bytes).
    Removing stm32f10x_tim.o(i.TI2_Config), (152 bytes).
    Removing stm32f10x_tim.o(i.TI3_Config), (144 bytes).
    Removing stm32f10x_tim.o(i.TI4_Config), (152 bytes).
    Removing stm32f10x_tim.o(i.TIM_ARRPreloadConfig), (24 bytes).
    Removing stm32f10x_tim.o(i.TIM_BDTRConfig), (32 bytes).
    Removing stm32f10x_tim.o(i.TIM_BDTRStructInit), (18 bytes).
    Removing stm32f10x_tim.o(i.TIM_CCPreloadControl), (24 bytes).
    Removing stm32f10x_tim.o(i.TIM_CCxCmd), (30 bytes).
    Removing stm32f10x_tim.o(i.TIM_CCxNCmd), (30 bytes).
    Removing stm32f10x_tim.o(i.TIM_ClearFlag), (6 bytes).
    Removing stm32f10x_tim.o(i.TIM_ClearOC1Ref), (18 bytes).
    Removing stm32f10x_tim.o(i.TIM_ClearOC2Ref), (24 bytes).
    Removing stm32f10x_tim.o(i.TIM_ClearOC3Ref), (18 bytes).
    Removing stm32f10x_tim.o(i.TIM_ClearOC4Ref), (24 bytes).
    Removing stm32f10x_tim.o(i.TIM_CounterModeConfig), (18 bytes).
    Removing stm32f10x_tim.o(i.TIM_CtrlPWMOutputs), (30 bytes).
    Removing stm32f10x_tim.o(i.TIM_DMACmd), (18 bytes).
    Removing stm32f10x_tim.o(i.TIM_DMAConfig), (10 bytes).
    Removing stm32f10x_tim.o(i.TIM_DeInit), (488 bytes).
    Removing stm32f10x_tim.o(i.TIM_ETRClockMode1Config), (54 bytes).
    Removing stm32f10x_tim.o(i.TIM_ETRClockMode2Config), (32 bytes).
    Removing stm32f10x_tim.o(i.TIM_ETRConfig), (28 bytes).
    Removing stm32f10x_tim.o(i.TIM_EncoderInterfaceConfig), (66 bytes).
    Removing stm32f10x_tim.o(i.TIM_ForcedOC1Config), (18 bytes).
    Removing stm32f10x_tim.o(i.TIM_ForcedOC2Config), (26 bytes).
    Removing stm32f10x_tim.o(i.TIM_ForcedOC3Config), (18 bytes).
    Removing stm32f10x_tim.o(i.TIM_ForcedOC4Config), (26 bytes).
    Removing stm32f10x_tim.o(i.TIM_GenerateEvent), (4 bytes).
    Removing stm32f10x_tim.o(i.TIM_GetCapture1), (6 bytes).
    Removing stm32f10x_tim.o(i.TIM_GetCapture2), (6 bytes).
    Removing stm32f10x_tim.o(i.TIM_GetCapture3), (6 bytes).
    Removing stm32f10x_tim.o(i.TIM_GetCapture4), (8 bytes).
    Removing stm32f10x_tim.o(i.TIM_GetCounter), (6 bytes).
    Removing stm32f10x_tim.o(i.TIM_GetFlagStatus), (18 bytes).
    Removing stm32f10x_tim.o(i.TIM_GetPrescaler), (6 bytes).
    Removing stm32f10x_tim.o(i.TIM_ICInit), (172 bytes).
    Removing stm32f10x_tim.o(i.TIM_ICStructInit), (18 bytes).
    Removing stm32f10x_tim.o(i.TIM_ITRxExternalClockConfig), (24 bytes).
    Removing stm32f10x_tim.o(i.TIM_InternalClockConfig), (12 bytes).
    Removing stm32f10x_tim.o(i.TIM_OC1FastConfig), (18 bytes).
    Removing stm32f10x_tim.o(i.TIM_OC1Init), (152 bytes).
    Removing stm32f10x_tim.o(i.TIM_OC1NPolarityConfig), (18 bytes).
    Removing stm32f10x_tim.o(i.TIM_OC1PolarityConfig), (18 bytes).
    Removing stm32f10x_tim.o(i.TIM_OC1PreloadConfig), (18 bytes).
    Removing stm32f10x_tim.o(i.TIM_OC2FastConfig), (26 bytes).
    Removing stm32f10x_tim.o(i.TIM_OC2Init), (164 bytes).
    Removing stm32f10x_tim.o(i.TIM_OC2NPolarityConfig), (26 bytes).
    Removing stm32f10x_tim.o(i.TIM_OC2PolarityConfig), (26 bytes).
    Removing stm32f10x_tim.o(i.TIM_OC2PreloadConfig), (26 bytes).
    Removing stm32f10x_tim.o(i.TIM_OC3FastConfig), (18 bytes).
    Removing stm32f10x_tim.o(i.TIM_OC3Init), (160 bytes).
    Removing stm32f10x_tim.o(i.TIM_OC3NPolarityConfig), (26 bytes).
    Removing stm32f10x_tim.o(i.TIM_OC3PolarityConfig), (26 bytes).
    Removing stm32f10x_tim.o(i.TIM_OC3PreloadConfig), (18 bytes).
    Removing stm32f10x_tim.o(i.TIM_OC4FastConfig), (26 bytes).
    Removing stm32f10x_tim.o(i.TIM_OC4Init), (124 bytes).
    Removing stm32f10x_tim.o(i.TIM_OC4PolarityConfig), (26 bytes).
    Removing stm32f10x_tim.o(i.TIM_OC4PreloadConfig), (26 bytes).
    Removing stm32f10x_tim.o(i.TIM_OCStructInit), (20 bytes).
    Removing stm32f10x_tim.o(i.TIM_PWMIConfig), (124 bytes).
    Removing stm32f10x_tim.o(i.TIM_PrescalerConfig), (6 bytes).
    Removing stm32f10x_tim.o(i.TIM_SelectCCDMA), (24 bytes).
    Removing stm32f10x_tim.o(i.TIM_SelectCOM), (24 bytes).
    Removing stm32f10x_tim.o(i.TIM_SelectHallSensor), (24 bytes).
    Removing stm32f10x_tim.o(i.TIM_SelectInputTrigger), (18 bytes).
    Removing stm32f10x_tim.o(i.TIM_SelectMasterSlaveMode), (18 bytes).
    Removing stm32f10x_tim.o(i.TIM_SelectOCxM), (82 bytes).
    Removing stm32f10x_tim.o(i.TIM_SelectOnePulseMode), (18 bytes).
    Removing stm32f10x_tim.o(i.TIM_SelectOutputTrigger), (18 bytes).
    Removing stm32f10x_tim.o(i.TIM_SelectSlaveMode), (18 bytes).
    Removing stm32f10x_tim.o(i.TIM_SetAutoreload), (4 bytes).
    Removing stm32f10x_tim.o(i.TIM_SetClockDivision), (18 bytes).
    Removing stm32f10x_tim.o(i.TIM_SetCompare1), (4 bytes).
    Removing stm32f10x_tim.o(i.TIM_SetCompare2), (4 bytes).
    Removing stm32f10x_tim.o(i.TIM_SetCompare3), (4 bytes).
    Removing stm32f10x_tim.o(i.TIM_SetCompare4), (6 bytes).
    Removing stm32f10x_tim.o(i.TIM_SetIC1Prescaler), (18 bytes).
    Removing stm32f10x_tim.o(i.TIM_SetIC2Prescaler), (26 bytes).
    Removing stm32f10x_tim.o(i.TIM_SetIC3Prescaler), (18 bytes).
    Removing stm32f10x_tim.o(i.TIM_SetIC4Prescaler), (26 bytes).
    Removing stm32f10x_tim.o(i.TIM_TIxExternalClockConfig), (62 bytes).
    Removing stm32f10x_tim.o(i.TIM_TimeBaseStructInit), (18 bytes).
    Removing stm32f10x_tim.o(i.TIM_UpdateDisableConfig), (24 bytes).
    Removing stm32f10x_tim.o(i.TIM_UpdateRequestConfig), (24 bytes).
    Removing led.o(i.LED_Init), (76 bytes).
    Removing oled.o(i.OLED_ColorTurn), (28 bytes).
    Removing oled.o(i.OLED_DisPlay_Off), (28 bytes).
    Removing oled.o(i.OLED_DisPlay_On), (28 bytes).
    Removing oled.o(i.OLED_DisplayTurn), (44 bytes).
    Removing oled.o(i.OLED_DrawCircle), (152 bytes).
    Removing oled.o(i.OLED_DrawLine), (168 bytes).
    Removing oled.o(i.OLED_SHOWSTR), (60 bytes).
    Removing oled.o(i.OLED_ScrollDisplay), (164 bytes).
    Removing oled.o(i.OLED_ShowChinese_16), (156 bytes).
    Removing oled.o(i.OLED_ShowPicture), (98 bytes).
    Removing oled.o(i.OLED_ShowString), (66 bytes).
    Removing oled.o(i.OLED_WR_BP), (42 bytes).
    Removing max30102.o(i.max30102_FIFO_ReadWords), (168 bytes).
    Removing max30102.o(i.maxim_max30102_read_fifo), (124 bytes).
    Removing max30102.o(i.maxim_max30102_read_reg), (18 bytes).
    Removing max30102.o(i.maxim_max30102_write_reg), (18 bytes).
    Removing myiic.o(i.IIC_ReadBytes), (94 bytes).
    Removing myiic.o(i.IIC_Read_One_Byte), (62 bytes).
    Removing myiic.o(i.IIC_WriteBytes), (60 bytes).
    Removing myiic.o(i.IIC_Write_One_Byte), (54 bytes).
    Removing as608.o(i.Del_FR), (2 bytes).
    Removing as608.o(i.PS_DeletChar), (108 bytes).
    Removing as608.o(i.PS_Empty), (58 bytes).
    Removing as608.o(i.PS_HandShake), (128 bytes).
    Removing as608.o(i.PS_ReadNotepad), (96 bytes).
    Removing as608.o(i.PS_ReadSysPara), (240 bytes).
    Removing as608.o(i.PS_Search), (144 bytes).
    Removing as608.o(i.PS_SetAddr), (180 bytes).
    Removing as608.o(i.PS_ValidTempleteNum), (136 bytes).
    Removing as608.o(i.PS_WriteNotepad), (106 bytes).
    Removing as608.o(i.PS_WriteReg), (136 bytes).
    Removing as608.o(.bss), (12 bytes).
    Removing core_cm3.o(.emb_text), (32 bytes).
    Removing mqttkit.o(i.MQTT_PacketDisConnect), (48 bytes).
    Removing mqttkit.o(i.MQTT_PacketPing), (48 bytes).
    Removing mqttkit.o(i.MQTT_PacketSaveBinData), (212 bytes).
    Removing mqttkit.o(i.MQTT_PacketSaveData), (92 bytes).
    Removing mqttkit.o(i.MQTT_PacketUnSubscribe), (238 bytes).
    Removing cjson.o(i.cJSON_AddItemReferenceToArray), (24 bytes).
    Removing cjson.o(i.cJSON_AddItemReferenceToObject), (32 bytes).
    Removing cjson.o(i.cJSON_AddItemToArray), (42 bytes).
    Removing cjson.o(i.cJSON_AddItemToObject), (48 bytes).
    Removing cjson.o(i.cJSON_AddItemToObjectCS), (60 bytes).
    Removing cjson.o(i.cJSON_CreateArray), (18 bytes).
    Removing cjson.o(i.cJSON_CreateBool), (26 bytes).
    Removing cjson.o(i.cJSON_CreateDoubleArray), (68 bytes).
    Removing cjson.o(i.cJSON_CreateFalse), (18 bytes).
    Removing cjson.o(i.cJSON_CreateFloatArray), (68 bytes).
    Removing cjson.o(i.cJSON_CreateIntArray), (68 bytes).
    Removing cjson.o(i.cJSON_CreateNull), (18 bytes).
    Removing cjson.o(i.cJSON_CreateNumber), (36 bytes).
    Removing cjson.o(i.cJSON_CreateObject), (18 bytes).
    Removing cjson.o(i.cJSON_CreateString), (28 bytes).
    Removing cjson.o(i.cJSON_CreateStringArray), (62 bytes).
    Removing cjson.o(i.cJSON_CreateTrue), (18 bytes).
    Removing cjson.o(i.cJSON_DeleteItemFromArray), (22 bytes).
    Removing cjson.o(i.cJSON_DeleteItemFromObject), (22 bytes).
    Removing cjson.o(i.cJSON_DetachItemFromArray), (66 bytes).
    Removing cjson.o(i.cJSON_DetachItemFromObject), (50 bytes).
    Removing cjson.o(i.cJSON_Duplicate), (172 bytes).
    Removing cjson.o(i.cJSON_GetArrayItem), (18 bytes).
    Removing cjson.o(i.cJSON_GetArraySize), (18 bytes).
    Removing cjson.o(i.cJSON_InitHooks), (64 bytes).
    Removing cjson.o(i.cJSON_InsertItemInArray), (64 bytes).
    Removing cjson.o(i.cJSON_Minify), (186 bytes).
    Removing cjson.o(i.cJSON_Print), (18 bytes).
    Removing cjson.o(i.cJSON_PrintBuffered), (44 bytes).
    Removing cjson.o(i.cJSON_PrintUnformatted), (18 bytes).
    Removing cjson.o(i.cJSON_ReplaceItemInArray), (76 bytes).
    Removing cjson.o(i.cJSON_ReplaceItemInObject), (62 bytes).
    Removing cjson.o(i.cJSON_strdup), (44 bytes).
    Removing cjson.o(i.create_reference), (48 bytes).
    Removing cjson.o(i.ensure), (112 bytes).
    Removing cjson.o(i.pow2gt), (28 bytes).
    Removing cjson.o(i.print_array), (592 bytes).
    Removing cjson.o(i.print_number), (408 bytes).
    Removing cjson.o(i.print_object), (1048 bytes).
    Removing cjson.o(i.print_string), (16 bytes).
    Removing cjson.o(i.print_string_ptr), (468 bytes).
    Removing cjson.o(i.print_value), (304 bytes).
    Removing cjson.o(i.suffix_object), (6 bytes).
    Removing cjson.o(i.update), (32 bytes).

242 unused section(s) (total 14500 bytes) removed from the image.

==============================================================================

Image Symbol Table

    Local Symbols

    Symbol Name                              Value     Ov Type        Size  Object(Section)

    ../clib/angel/boardlib.s                 0x00000000   Number         0  boardinit3.o ABSOLUTE
    ../clib/angel/boardlib.s                 0x00000000   Number         0  boardinit2.o ABSOLUTE
    ../clib/angel/boardlib.s                 0x00000000   Number         0  boardinit1.o ABSOLUTE
    ../clib/angel/boardlib.s                 0x00000000   Number         0  boardshut.o ABSOLUTE
    ../clib/angel/dczerorl2.s                0x00000000   Number         0  __dczerorl2.o ABSOLUTE
    ../clib/angel/handlers.s                 0x00000000   Number         0  __scatter_zi.o ABSOLUTE
    ../clib/angel/kernel.s                   0x00000000   Number         0  __rtentry.o ABSOLUTE
    ../clib/angel/kernel.s                   0x00000000   Number         0  rtexit2.o ABSOLUTE
    ../clib/angel/kernel.s                   0x00000000   Number         0  rtexit.o ABSOLUTE
    ../clib/angel/kernel.s                   0x00000000   Number         0  __rtentry2.o ABSOLUTE
    ../clib/angel/kernel.s                   0x00000000   Number         0  __rtentry4.o ABSOLUTE
    ../clib/angel/rt.s                       0x00000000   Number         0  rt_heap_descriptor.o ABSOLUTE
    ../clib/angel/rt.s                       0x00000000   Number         0  rt_locale.o ABSOLUTE
    ../clib/angel/rt.s                       0x00000000   Number         0  rt_ctype_table.o ABSOLUTE
    ../clib/angel/rt.s                       0x00000000   Number         0  rt_locale_intlibspace.o ABSOLUTE
    ../clib/angel/rt.s                       0x00000000   Number         0  rt_errno_addr_intlibspace.o ABSOLUTE
    ../clib/angel/rt.s                       0x00000000   Number         0  rt_errno_addr.o ABSOLUTE
    ../clib/angel/rt.s                       0x00000000   Number         0  rt_heap_descriptor_intlibspace.o ABSOLUTE
    ../clib/angel/rt.s                       0x00000000   Number         0  rt_raise.o ABSOLUTE
    ../clib/angel/scatter.s                  0x00000000   Number         0  __scatter.o ABSOLUTE
    ../clib/angel/startup.s                  0x00000000   Number         0  __main.o ABSOLUTE
    ../clib/angel/sys.s                      0x00000000   Number         0  indicate_semi.o ABSOLUTE
    ../clib/angel/sys.s                      0x00000000   Number         0  use_no_semi.o ABSOLUTE
    ../clib/angel/sys.s                      0x00000000   Number         0  mutex_dummy.o ABSOLUTE
    ../clib/angel/sys.s                      0x00000000   Number         0  sys_stackheap_outer.o ABSOLUTE
    ../clib/angel/sys.s                      0x00000000   Number         0  libspace.o ABSOLUTE
    ../clib/angel/sysapp.c                   0x00000000   Number         0  sys_exit.o ABSOLUTE
    ../clib/angel/sysapp.c                   0x00000000   Number         0  sys_io.o ABSOLUTE
    ../clib/angel/sysapp.c                   0x00000000   Number         0  sys_command.o ABSOLUTE
    ../clib/angel/sysapp.c                   0x00000000   Number         0  sys_wrch.o ABSOLUTE
    ../clib/armsys.c                         0x00000000   Number         0  argv_veneer.o ABSOLUTE
    ../clib/armsys.c                         0x00000000   Number         0  no_argv.o ABSOLUTE
    ../clib/armsys.c                         0x00000000   Number         0  _get_argv.o ABSOLUTE
    ../clib/armsys.c                         0x00000000   Number         0  _get_argv_nomalloc.o ABSOLUTE
    ../clib/armsys.c                         0x00000000   Number         0  argv_veneer.o ABSOLUTE
    ../clib/assert.c                         0x00000000   Number         0  assert_stdio.o ABSOLUTE
    ../clib/bigflt.c                         0x00000000   Number         0  bigflt0.o ABSOLUTE
    ../clib/btod.s                           0x00000000   Number         0  btod.o ABSOLUTE
    ../clib/ctype.c                          0x00000000   Number         0  tolower.o ABSOLUTE
    ../clib/fenv.c                           0x00000000   Number         0  _rserrno.o ABSOLUTE
    ../clib/heap1.c                          0x00000000   Number         0  h1_init_mt.o ABSOLUTE
    ../clib/heap1.c                          0x00000000   Number         0  h1_init.o ABSOLUTE
    ../clib/heap1.c                          0x00000000   Number         0  h1_extend_mt.o ABSOLUTE
    ../clib/heap1.c                          0x00000000   Number         0  h1_free.o ABSOLUTE
    ../clib/heap1.c                          0x00000000   Number         0  h1_final_mt.o ABSOLUTE
    ../clib/heap1.c                          0x00000000   Number         0  h1_alloc.o ABSOLUTE
    ../clib/heap1.c                          0x00000000   Number         0  h1_extend.o ABSOLUTE
    ../clib/heap1.c                          0x00000000   Number         0  h1_final.o ABSOLUTE
    ../clib/heap1.c                          0x00000000   Number         0  h1_alloc_mt.o ABSOLUTE
    ../clib/heap1.c                          0x00000000   Number         0  h1_free_mt.o ABSOLUTE
    ../clib/heap2.c                          0x00000000   Number         0  fdtree.o ABSOLUTE
    ../clib/heap2.c                          0x00000000   Number         0  heap2.o ABSOLUTE
    ../clib/heap2.c                          0x00000000   Number         0  heap2mt.o ABSOLUTE
    ../clib/heapalloc.c                      0x00000000   Number         0  maybetermalloc2.o ABSOLUTE
    ../clib/heapalloc.c                      0x00000000   Number         0  init_alloc.o ABSOLUTE
    ../clib/heapalloc.c                      0x00000000   Number         0  maybetermalloc1.o ABSOLUTE
    ../clib/heapalloc.c                      0x00000000   Number         0  hrguard.o ABSOLUTE
    ../clib/heapalloc.c                      0x00000000   Number         0  maybetermalloc2.o ABSOLUTE
    ../clib/heapalloc.c                      0x00000000   Number         0  malloc.o ABSOLUTE
    ../clib/heapalloc.c                      0x00000000   Number         0  free.o ABSOLUTE
    ../clib/heapalloc.c                      0x00000000   Number         0  heapstubs.o ABSOLUTE
    ../clib/heapalloc.c                      0x00000000   Number         0  maybetermalloc1.o ABSOLUTE
    ../clib/heapalloc.c                      0x00000000   Number         0  term_alloc.o ABSOLUTE
    ../clib/heapalloc.c                      0x00000000   Number         0  hguard.o ABSOLUTE
    ../clib/heapaux.c                        0x00000000   Number         0  heapauxa.o ABSOLUTE
    ../clib/heapaux.c                        0x00000000   Number         0  heapauxi.o ABSOLUTE
    ../clib/libinit.s                        0x00000000   Number         0  libshutdown.o ABSOLUTE
    ../clib/libinit.s                        0x00000000   Number         0  libinit.o ABSOLUTE
    ../clib/libinit.s                        0x00000000   Number         0  libinit2.o ABSOLUTE
    ../clib/libinit.s                        0x00000000   Number         0  libshutdown2.o ABSOLUTE
    ../clib/locale.c                         0x00000000   Number         0  _wcrtomb.o ABSOLUTE
    ../clib/locale.s                         0x00000000   Number         0  lc_numeric_c.o ABSOLUTE
    ../clib/locale.s                         0x00000000   Number         0  lc_ctype_c.o ABSOLUTE
    ../clib/longlong.s                       0x00000000   Number         0  lludiv10.o ABSOLUTE
    ../clib/memcpset.s                       0x00000000   Number         0  rt_memclr_w.o ABSOLUTE
    ../clib/memcpset.s                       0x00000000   Number         0  strcmpv7m.o ABSOLUTE
    ../clib/memcpset.s                       0x00000000   Number         0  rt_memcpy_w.o ABSOLUTE
    ../clib/memcpset.s                       0x00000000   Number         0  rt_memclr.o ABSOLUTE
    ../clib/memcpset.s                       0x00000000   Number         0  rt_memcpy_v6.o ABSOLUTE
    ../clib/misc.s                           0x00000000   Number         0  printf_stubs.o ABSOLUTE
    ../clib/printf.c                         0x00000000   Number         0  _printf_truncate.o ABSOLUTE
    ../clib/printf.c                         0x00000000   Number         0  _printf_fp_infnan.o ABSOLUTE
    ../clib/printf.c                         0x00000000   Number         0  _printf_wchar.o ABSOLUTE
    ../clib/printf.c                         0x00000000   Number         0  _printf_hex_ll_ptr.o ABSOLUTE
    ../clib/printf.c                         0x00000000   Number         0  _printf_fp_dec.o ABSOLUTE
    ../clib/printf.c                         0x00000000   Number         0  __2printf.o ABSOLUTE
    ../clib/printf.c                         0x00000000   Number         0  __2sprintf.o ABSOLUTE
    ../clib/printf.c                         0x00000000   Number         0  _printf_oct_int.o ABSOLUTE
    ../clib/printf.c                         0x00000000   Number         0  noretval__2printf.o ABSOLUTE
    ../clib/printf.c                         0x00000000   Number         0  noretval__2sprintf.o ABSOLUTE
    ../clib/printf.c                         0x00000000   Number         0  __printf.o ABSOLUTE
    ../clib/printf.c                         0x00000000   Number         0  _printf_pad.o ABSOLUTE
    ../clib/printf.c                         0x00000000   Number         0  _printf_oct_ll.o ABSOLUTE
    ../clib/printf.c                         0x00000000   Number         0  _printf_str.o ABSOLUTE
    ../clib/printf.c                         0x00000000   Number         0  _printf_longlong_dec.o ABSOLUTE
    ../clib/printf.c                         0x00000000   Number         0  _printf_dec.o ABSOLUTE
    ../clib/printf.c                         0x00000000   Number         0  _printf_char_file_locked.o ABSOLUTE
    ../clib/printf.c                         0x00000000   Number         0  _printf_wctomb.o ABSOLUTE
    ../clib/printf.c                         0x00000000   Number         0  _printf_hex_ll.o ABSOLUTE
    ../clib/printf.c                         0x00000000   Number         0  _printf_hex_int.o ABSOLUTE
    ../clib/printf.c                         0x00000000   Number         0  _printf_hex_int_ll.o ABSOLUTE
    ../clib/printf.c                         0x00000000   Number         0  _printf_hex_ptr.o ABSOLUTE
    ../clib/printf.c                         0x00000000   Number         0  _printf_hex_int_ptr.o ABSOLUTE
    ../clib/printf.c                         0x00000000   Number         0  _printf_hex_int_ll_ptr.o ABSOLUTE
    ../clib/printf.c                         0x00000000   Number         0  _printf_char_file.o ABSOLUTE
    ../clib/printf.c                         0x00000000   Number         0  _printf_char.o ABSOLUTE
    ../clib/printf.c                         0x00000000   Number         0  _snputc.o ABSOLUTE
    ../clib/printf.c                         0x00000000   Number         0  _sputc.o ABSOLUTE
    ../clib/printf.c                         0x00000000   Number         0  _printf_char_common.o ABSOLUTE
    ../clib/printf.c                         0x00000000   Number         0  __printf_flags.o ABSOLUTE
    ../clib/printf.c                         0x00000000   Number         0  _printf_oct_int_ll.o ABSOLUTE
    ../clib/printf.c                         0x00000000   Number         0  __printf_ss.o ABSOLUTE
    ../clib/printf.c                         0x00000000   Number         0  __printf_flags_ss.o ABSOLUTE
    ../clib/printf.c                         0x00000000   Number         0  __printf_wp.o ABSOLUTE
    ../clib/printf.c                         0x00000000   Number         0  __printf_nopercent.o ABSOLUTE
    ../clib/printf.c                         0x00000000   Number         0  __printf_flags_wp.o ABSOLUTE
    ../clib/printf.c                         0x00000000   Number         0  __printf_ss_wp.o ABSOLUTE
    ../clib/printf.c                         0x00000000   Number         0  __printf_flags_ss_wp.o ABSOLUTE
    ../clib/printf.c                         0x00000000   Number         0  _printf_charcount.o ABSOLUTE
    ../clib/printf.c                         0x00000000   Number         0  _printf_intcommon.o ABSOLUTE
    ../clib/printf.c                         0x00000000   Number         0  c89vsnprintf.o ABSOLUTE
    ../clib/printf_percent.s                 0x00000000   Number         0  _printf_d.o ABSOLUTE
    ../clib/printf_percent.s                 0x00000000   Number         0  _printf_percent_end.o ABSOLUTE
    ../clib/printf_percent.s                 0x00000000   Number         0  _printf_x.o ABSOLUTE
    ../clib/printf_percent.s                 0x00000000   Number         0  _printf_s.o ABSOLUTE
    ../clib/printf_percent.s                 0x00000000   Number         0  _printf_a.o ABSOLUTE
    ../clib/printf_percent.s                 0x00000000   Number         0  _printf_llu.o ABSOLUTE
    ../clib/printf_percent.s                 0x00000000   Number         0  _printf_g.o ABSOLUTE
    ../clib/printf_percent.s                 0x00000000   Number         0  _printf_u.o ABSOLUTE
    ../clib/printf_percent.s                 0x00000000   Number         0  _printf_i.o ABSOLUTE
    ../clib/printf_percent.s                 0x00000000   Number         0  _printf_o.o ABSOLUTE
    ../clib/printf_percent.s                 0x00000000   Number         0  _printf_p.o ABSOLUTE
    ../clib/printf_percent.s                 0x00000000   Number         0  _printf_percent.o ABSOLUTE
    ../clib/printf_percent.s                 0x00000000   Number         0  _printf_n.o ABSOLUTE
    ../clib/printf_percent.s                 0x00000000   Number         0  _printf_c.o ABSOLUTE
    ../clib/printf_percent.s                 0x00000000   Number         0  _printf_f.o ABSOLUTE
    ../clib/printf_percent.s                 0x00000000   Number         0  _printf_lli.o ABSOLUTE
    ../clib/printf_percent.s                 0x00000000   Number         0  _printf_llx.o ABSOLUTE
    ../clib/printf_percent.s                 0x00000000   Number         0  _printf_llo.o ABSOLUTE
    ../clib/printf_percent.s                 0x00000000   Number         0  _printf_ls.o ABSOLUTE
    ../clib/printf_percent.s                 0x00000000   Number         0  _printf_lc.o ABSOLUTE
    ../clib/printf_percent.s                 0x00000000   Number         0  _printf_l.o ABSOLUTE
    ../clib/printf_percent.s                 0x00000000   Number         0  _printf_ll.o ABSOLUTE
    ../clib/printf_percent.s                 0x00000000   Number         0  _printf_e.o ABSOLUTE
    ../clib/printf_percent.s                 0x00000000   Number         0  _printf_lld.o ABSOLUTE
    ../clib/scanf.c                          0x00000000   Number         0  _strtoul.o ABSOLUTE
    ../clib/scanf.c                          0x00000000   Number         0  atoi.o ABSOLUTE
    ../clib/scanf.c                          0x00000000   Number         0  _chval.o ABSOLUTE
    ../clib/scanf.c                          0x00000000   Number         0  strtol.o ABSOLUTE
    ../clib/signal.c                         0x00000000   Number         0  __raise.o ABSOLUTE
    ../clib/signal.c                         0x00000000   Number         0  defsig_rtmem_formal.o ABSOLUTE
    ../clib/signal.c                         0x00000000   Number         0  defsig_exit.o ABSOLUTE
    ../clib/signal.c                         0x00000000   Number         0  defsig_rtred_outer.o ABSOLUTE
    ../clib/signal.c                         0x00000000   Number         0  defsig_rtred_formal.o ABSOLUTE
    ../clib/signal.c                         0x00000000   Number         0  defsig_rtmem_inner.o ABSOLUTE
    ../clib/signal.c                         0x00000000   Number         0  defsig_other.o ABSOLUTE
    ../clib/signal.c                         0x00000000   Number         0  defsig_segv_inner.o ABSOLUTE
    ../clib/signal.c                         0x00000000   Number         0  defsig_stak_inner.o ABSOLUTE
    ../clib/signal.c                         0x00000000   Number         0  defsig_abrt_inner.o ABSOLUTE
    ../clib/signal.c                         0x00000000   Number         0  defsig_rtmem_outer.o ABSOLUTE
    ../clib/signal.c                         0x00000000   Number         0  defsig_rtred_inner.o ABSOLUTE
    ../clib/signal.c                         0x00000000   Number         0  defsig_general.o ABSOLUTE
    ../clib/signal.c                         0x00000000   Number         0  defsig_fpe_inner.o ABSOLUTE
    ../clib/signal.c                         0x00000000   Number         0  defsig_cppl_inner.o ABSOLUTE
    ../clib/signal.c                         0x00000000   Number         0  defsig_pvfn_inner.o ABSOLUTE
    ../clib/signal.s                         0x00000000   Number         0  defsig.o ABSOLUTE
    ../clib/stdio.c                          0x00000000   Number         0  ferror_locked.o ABSOLUTE
    ../clib/stdio.c                          0x00000000   Number         0  fputc_locked.o ABSOLUTE
    ../clib/stdio.c                          0x00000000   Number         0  initio.o ABSOLUTE
    ../clib/stdio.c                          0x00000000   Number         0  fputc.o ABSOLUTE
    ../clib/stdio.c                          0x00000000   Number         0  ferror.o ABSOLUTE
    ../clib/stdio.c                          0x00000000   Number         0  fflush_locked.o ABSOLUTE
    ../clib/stdio.c                          0x00000000   Number         0  fputs_locked.o ABSOLUTE
    ../clib/stdio.c                          0x00000000   Number         0  ftell.o ABSOLUTE
    ../clib/stdio.c                          0x00000000   Number         0  fputs.o ABSOLUTE
    ../clib/stdio.c                          0x00000000   Number         0  fflush.o ABSOLUTE
    ../clib/stdio.c                          0x00000000   Number         0  fwritefast_locked.o ABSOLUTE
    ../clib/stdio.c                          0x00000000   Number         0  fwritefast.o ABSOLUTE
    ../clib/stdio.c                          0x00000000   Number         0  stdio.o ABSOLUTE
    ../clib/stdio.c                          0x00000000   Number         0  fseek.o ABSOLUTE
    ../clib/stdio.c                          0x00000000   Number         0  fopen_locked.o ABSOLUTE
    ../clib/stdio.c                          0x00000000   Number         0  stdio_streams.o ABSOLUTE
    ../clib/stdio.c                          0x00000000   Number         0  setvbuf_locked.o ABSOLUTE
    ../clib/stdio.c                          0x00000000   Number         0  fclose.o ABSOLUTE
    ../clib/stdio.c                          0x00000000   Number         0  fopen.o ABSOLUTE
    ../clib/stdio.c                          0x00000000   Number         0  streamlock.o ABSOLUTE
    ../clib/stdio.c                          0x00000000   Number         0  setvbuf.o ABSOLUTE
    ../clib/stdio.c                          0x00000000   Number         0  flsbuf.o ABSOLUTE
    ../clib/stdio.c                          0x00000000   Number         0  initio_locked.o ABSOLUTE
    ../clib/stdlib.c                         0x00000000   Number         0  exit.o ABSOLUTE
    ../clib/string.c                         0x00000000   Number         0  strncat.o ABSOLUTE
    ../clib/string.c                         0x00000000   Number         0  strstr.o ABSOLUTE
    ../clib/string.c                         0x00000000   Number         0  strchr.o ABSOLUTE
    ../clib/string.c                         0x00000000   Number         0  strncmp.o ABSOLUTE
    ../clib/string.c                         0x00000000   Number         0  strlen.o ABSOLUTE
    ../clib/string.c                         0x00000000   Number         0  strcpy.o ABSOLUTE
    ../clib/wchar.c                          0x00000000   Number         0  flsbuf_fwide.o ABSOLUTE
    ../fplib/d2f.s                           0x00000000   Number         0  d2f.o ABSOLUTE
    ../fplib/daddsub.s                       0x00000000   Number         0  daddsub_clz.o ABSOLUTE
    ../fplib/dcheck1.s                       0x00000000   Number         0  dcheck1.o ABSOLUTE
    ../fplib/dcmpi.s                         0x00000000   Number         0  dcmpi.o ABSOLUTE
    ../fplib/ddiv.s                          0x00000000   Number         0  ddiv.o ABSOLUTE
    ../fplib/deqf.s                          0x00000000   Number         0  deqf.o ABSOLUTE
    ../fplib/dfix.s                          0x00000000   Number         0  dfix.o ABSOLUTE
    ../fplib/dflt.s                          0x00000000   Number         0  dflt_clz.o ABSOLUTE
    ../fplib/dleqf.s                         0x00000000   Number         0  dleqf.o ABSOLUTE
    ../fplib/dmul.s                          0x00000000   Number         0  dmul.o ABSOLUTE
    ../fplib/dnaninf.s                       0x00000000   Number         0  dnaninf.o ABSOLUTE
    ../fplib/dretinf.s                       0x00000000   Number         0  dretinf.o ABSOLUTE
    ../fplib/drleqf.s                        0x00000000   Number         0  drleqf.o ABSOLUTE
    ../fplib/dsqrt.s                         0x00000000   Number         0  dsqrt_noumaal.o ABSOLUTE
    ../fplib/f2d.s                           0x00000000   Number         0  f2d.o ABSOLUTE
    ../fplib/ffix.s                          0x00000000   Number         0  ffix.o ABSOLUTE
    ../fplib/fmul.s                          0x00000000   Number         0  fmul.o ABSOLUTE
    ../fplib/fnaninf.s                       0x00000000   Number         0  fnaninf.o ABSOLUTE
    ../fplib/fpinit.s                        0x00000000   Number         0  fpinit.o ABSOLUTE
    ../fplib/fretinf.s                       0x00000000   Number         0  fretinf.o ABSOLUTE
    ../fplib/istatus.s                       0x00000000   Number         0  istatus.o ABSOLUTE
    ../fplib/printf1.s                       0x00000000   Number         0  printf1.o ABSOLUTE
    ../fplib/retnan.s                        0x00000000   Number         0  retnan.o ABSOLUTE
    ../fplib/scalbn.s                        0x00000000   Number         0  scalbn.o ABSOLUTE
    ../fplib/trapv.s                         0x00000000   Number         0  trapv.o ABSOLUTE
    ../fplib/usenofp.s                       0x00000000   Number         0  usenofp.o ABSOLUTE
    ../mathlib/dunder.c                      0x00000000   Number         0  dunder.o ABSOLUTE
    ../mathlib/floor.c                       0x00000000   Number         0  floor.o ABSOLUTE
    ../mathlib/fpclassify.c                  0x00000000   Number         0  fpclassify.o ABSOLUTE
    ../mathlib/poly.c                        0x00000000   Number         0  poly.o ABSOLUTE
    ../mathlib/pow.c                         0x00000000   Number         0  pow.o ABSOLUTE
    ../mathlib/pow.c                         0x00000000   Number         0  pow_x.o ABSOLUTE
    ../mathlib/qnan.c                        0x00000000   Number         0  qnan.o ABSOLUTE
    ../mathlib/sqrt.c                        0x00000000   Number         0  sqrt_x.o ABSOLUTE
    ../mathlib/sqrt.c                        0x00000000   Number         0  sqrt.o ABSOLUTE
    ..\CORE\core_cm3.c                       0x00000000   Number         0  core_cm3.o ABSOLUTE
    ..\CORE\startup_stm32f10x_hd.s           0x00000000   Number         0  startup_stm32f10x_hd.o ABSOLUTE
    ..\HARDWARE\AS608\as608.c                0x00000000   Number         0  as608.o ABSOLUTE
    ..\HARDWARE\IIC2\IIC2.c                  0x00000000   Number         0  iic2.o ABSOLUTE
    ..\HARDWARE\IIC\algorithm.c              0x00000000   Number         0  algorithm.o ABSOLUTE
    ..\HARDWARE\IIC\max30102.c               0x00000000   Number         0  max30102.o ABSOLUTE
    ..\HARDWARE\IIC\myiic.c                  0x00000000   Number         0  myiic.o ABSOLUTE
    ..\HARDWARE\KEY\key.c                    0x00000000   Number         0  key.o ABSOLUTE
    ..\HARDWARE\LED\led.c                    0x00000000   Number         0  led.o ABSOLUTE
    ..\HARDWARE\OLED\oled.c                  0x00000000   Number         0  oled.o ABSOLUTE
    ..\NET\MQTT\MqttKit.c                    0x00000000   Number         0  mqttkit.o ABSOLUTE
    ..\NET\cJSON\cJSON.c                     0x00000000   Number         0  cjson.o ABSOLUTE
    ..\NET\device\esp8266.c                  0x00000000   Number         0  esp8266.o ABSOLUTE
    ..\NET\onenet\onenet.c                   0x00000000   Number         0  onenet.o ABSOLUTE
    ..\STM32F10x_FWLib\src\misc.c            0x00000000   Number         0  misc.o ABSOLUTE
    ..\STM32F10x_FWLib\src\stm32f10x_gpio.c  0x00000000   Number         0  stm32f10x_gpio.o ABSOLUTE
    ..\STM32F10x_FWLib\src\stm32f10x_rcc.c   0x00000000   Number         0  stm32f10x_rcc.o ABSOLUTE
    ..\STM32F10x_FWLib\src\stm32f10x_tim.c   0x00000000   Number         0  stm32f10x_tim.o ABSOLUTE
    ..\STM32F10x_FWLib\src\stm32f10x_usart.c 0x00000000   Number         0  stm32f10x_usart.o ABSOLUTE
    ..\SYSTEM\delay\delay.c                  0x00000000   Number         0  delay.o ABSOLUTE
    ..\SYSTEM\sys\sys.c                      0x00000000   Number         0  sys.o ABSOLUTE
    ..\SYSTEM\timer\timer.c                  0x00000000   Number         0  timer.o ABSOLUTE
    ..\SYSTEM\usart\usart.c                  0x00000000   Number         0  usart.o ABSOLUTE
    ..\\CORE\\core_cm3.c                     0x00000000   Number         0  core_cm3.o ABSOLUTE
    dc.s                                     0x00000000   Number         0  dc.o ABSOLUTE
    main.c                                   0x00000000   Number         0  main.o ABSOLUTE
    stm32f10x_it.c                           0x00000000   Number         0  stm32f10x_it.o ABSOLUTE
    system_stm32f10x.c                       0x00000000   Number         0  system_stm32f10x.o ABSOLUTE
    RESET                                    0x08000000   Section      304  startup_stm32f10x_hd.o(RESET)
    !!!main                                  0x08000130   Section        8  __main.o(!!!main)
    !!!scatter                               0x08000138   Section       52  __scatter.o(!!!scatter)
    !!dczerorl2                              0x0800016c   Section       90  __dczerorl2.o(!!dczerorl2)
    !!handler_zi                             0x080001c8   Section       28  __scatter_zi.o(!!handler_zi)
    .ARM.Collect$$_printf_percent$$00000000  0x080001e4   Section        0  _printf_percent.o(.ARM.Collect$$_printf_percent$$00000000)
    .ARM.Collect$$_printf_percent$$00000001  0x080001e4   Section        6  _printf_n.o(.ARM.Collect$$_printf_percent$$00000001)
    .ARM.Collect$$_printf_percent$$00000002  0x080001ea   Section        6  _printf_p.o(.ARM.Collect$$_printf_percent$$00000002)
    .ARM.Collect$$_printf_percent$$00000003  0x080001f0   Section        6  _printf_f.o(.ARM.Collect$$_printf_percent$$00000003)
    .ARM.Collect$$_printf_percent$$00000004  0x080001f6   Section        6  _printf_e.o(.ARM.Collect$$_printf_percent$$00000004)
    .ARM.Collect$$_printf_percent$$00000005  0x080001fc   Section        6  _printf_g.o(.ARM.Collect$$_printf_percent$$00000005)
    .ARM.Collect$$_printf_percent$$00000006  0x08000202   Section        6  _printf_a.o(.ARM.Collect$$_printf_percent$$00000006)
    .ARM.Collect$$_printf_percent$$00000007  0x08000208   Section       10  _printf_ll.o(.ARM.Collect$$_printf_percent$$00000007)
    .ARM.Collect$$_printf_percent$$00000008  0x08000212   Section        6  _printf_i.o(.ARM.Collect$$_printf_percent$$00000008)
    .ARM.Collect$$_printf_percent$$00000009  0x08000218   Section        6  _printf_d.o(.ARM.Collect$$_printf_percent$$00000009)
    .ARM.Collect$$_printf_percent$$0000000A  0x0800021e   Section        6  _printf_u.o(.ARM.Collect$$_printf_percent$$0000000A)
    .ARM.Collect$$_printf_percent$$0000000B  0x08000224   Section        6  _printf_o.o(.ARM.Collect$$_printf_percent$$0000000B)
    .ARM.Collect$$_printf_percent$$0000000C  0x0800022a   Section        6  _printf_x.o(.ARM.Collect$$_printf_percent$$0000000C)
    .ARM.Collect$$_printf_percent$$0000000D  0x08000230   Section        6  _printf_lli.o(.ARM.Collect$$_printf_percent$$0000000D)
    .ARM.Collect$$_printf_percent$$0000000E  0x08000236   Section        6  _printf_lld.o(.ARM.Collect$$_printf_percent$$0000000E)
    .ARM.Collect$$_printf_percent$$0000000F  0x0800023c   Section        6  _printf_llu.o(.ARM.Collect$$_printf_percent$$0000000F)
    .ARM.Collect$$_printf_percent$$00000010  0x08000242   Section        6  _printf_llo.o(.ARM.Collect$$_printf_percent$$00000010)
    .ARM.Collect$$_printf_percent$$00000011  0x08000248   Section        6  _printf_llx.o(.ARM.Collect$$_printf_percent$$00000011)
    .ARM.Collect$$_printf_percent$$00000012  0x0800024e   Section       10  _printf_l.o(.ARM.Collect$$_printf_percent$$00000012)
    .ARM.Collect$$_printf_percent$$00000013  0x08000258   Section        6  _printf_c.o(.ARM.Collect$$_printf_percent$$00000013)
    .ARM.Collect$$_printf_percent$$00000014  0x0800025e   Section        6  _printf_s.o(.ARM.Collect$$_printf_percent$$00000014)
    .ARM.Collect$$_printf_percent$$00000015  0x08000264   Section        6  _printf_lc.o(.ARM.Collect$$_printf_percent$$00000015)
    .ARM.Collect$$_printf_percent$$00000016  0x0800026a   Section        6  _printf_ls.o(.ARM.Collect$$_printf_percent$$00000016)
    .ARM.Collect$$_printf_percent$$00000017  0x08000270   Section        4  _printf_percent_end.o(.ARM.Collect$$_printf_percent$$00000017)
    .ARM.Collect$$libinit$$00000000          0x08000274   Section        2  libinit.o(.ARM.Collect$$libinit$$00000000)
    .ARM.Collect$$libinit$$00000002          0x08000276   Section        0  libinit2.o(.ARM.Collect$$libinit$$00000002)
    .ARM.Collect$$libinit$$00000004          0x08000276   Section        0  libinit2.o(.ARM.Collect$$libinit$$00000004)
    .ARM.Collect$$libinit$$00000005          0x08000276   Section        8  libinit2.o(.ARM.Collect$$libinit$$00000005)
    .ARM.Collect$$libinit$$0000000A          0x0800027e   Section        0  libinit2.o(.ARM.Collect$$libinit$$0000000A)
    .ARM.Collect$$libinit$$0000000C          0x0800027e   Section        0  libinit2.o(.ARM.Collect$$libinit$$0000000C)
    .ARM.Collect$$libinit$$0000000E          0x0800027e   Section        0  libinit2.o(.ARM.Collect$$libinit$$0000000E)
    .ARM.Collect$$libinit$$0000000F          0x0800027e   Section        6  libinit2.o(.ARM.Collect$$libinit$$0000000F)
    .ARM.Collect$$libinit$$00000011          0x08000284   Section        0  libinit2.o(.ARM.Collect$$libinit$$00000011)
    .ARM.Collect$$libinit$$00000012          0x08000284   Section       12  libinit2.o(.ARM.Collect$$libinit$$00000012)
    .ARM.Collect$$libinit$$00000013          0x08000290   Section        0  libinit2.o(.ARM.Collect$$libinit$$00000013)
    .ARM.Collect$$libinit$$00000015          0x08000290   Section        0  libinit2.o(.ARM.Collect$$libinit$$00000015)
    .ARM.Collect$$libinit$$00000016          0x08000290   Section       10  libinit2.o(.ARM.Collect$$libinit$$00000016)
    .ARM.Collect$$libinit$$00000017          0x0800029a   Section        0  libinit2.o(.ARM.Collect$$libinit$$00000017)
    .ARM.Collect$$libinit$$00000019          0x0800029a   Section        0  libinit2.o(.ARM.Collect$$libinit$$00000019)
    .ARM.Collect$$libinit$$0000001B          0x0800029a   Section        0  libinit2.o(.ARM.Collect$$libinit$$0000001B)
    .ARM.Collect$$libinit$$0000001D          0x0800029a   Section        0  libinit2.o(.ARM.Collect$$libinit$$0000001D)
    .ARM.Collect$$libinit$$0000001F          0x0800029a   Section        0  libinit2.o(.ARM.Collect$$libinit$$0000001F)
    .ARM.Collect$$libinit$$00000021          0x0800029a   Section        0  libinit2.o(.ARM.Collect$$libinit$$00000021)
    .ARM.Collect$$libinit$$00000023          0x0800029a   Section        0  libinit2.o(.ARM.Collect$$libinit$$00000023)
    .ARM.Collect$$libinit$$00000025          0x0800029a   Section        0  libinit2.o(.ARM.Collect$$libinit$$00000025)
    .ARM.Collect$$libinit$$0000002C          0x0800029a   Section        0  libinit2.o(.ARM.Collect$$libinit$$0000002C)
    .ARM.Collect$$libinit$$0000002E          0x0800029a   Section        0  libinit2.o(.ARM.Collect$$libinit$$0000002E)
    .ARM.Collect$$libinit$$00000030          0x0800029a   Section        0  libinit2.o(.ARM.Collect$$libinit$$00000030)
    .ARM.Collect$$libinit$$00000032          0x0800029a   Section        0  libinit2.o(.ARM.Collect$$libinit$$00000032)
    .ARM.Collect$$libinit$$00000033          0x0800029a   Section        2  libinit2.o(.ARM.Collect$$libinit$$00000033)
    .ARM.Collect$$libshutdown$$00000000      0x0800029c   Section        2  libshutdown.o(.ARM.Collect$$libshutdown$$00000000)
    .ARM.Collect$$libshutdown$$00000003      0x0800029e   Section        0  libshutdown2.o(.ARM.Collect$$libshutdown$$00000003)
    .ARM.Collect$$libshutdown$$00000006      0x0800029e   Section        0  libshutdown2.o(.ARM.Collect$$libshutdown$$00000006)
    .ARM.Collect$$libshutdown$$00000009      0x0800029e   Section        0  libshutdown2.o(.ARM.Collect$$libshutdown$$00000009)
    .ARM.Collect$$libshutdown$$0000000B      0x0800029e   Section        0  libshutdown2.o(.ARM.Collect$$libshutdown$$0000000B)
    .ARM.Collect$$libshutdown$$0000000E      0x0800029e   Section        0  libshutdown2.o(.ARM.Collect$$libshutdown$$0000000E)
    .ARM.Collect$$libshutdown$$0000000F      0x0800029e   Section        2  libshutdown2.o(.ARM.Collect$$libshutdown$$0000000F)
    .ARM.Collect$$rtentry$$00000000          0x080002a0   Section        0  __rtentry.o(.ARM.Collect$$rtentry$$00000000)
    .ARM.Collect$$rtentry$$00000002          0x080002a0   Section        0  __rtentry2.o(.ARM.Collect$$rtentry$$00000002)
    .ARM.Collect$$rtentry$$00000004          0x080002a0   Section        6  __rtentry4.o(.ARM.Collect$$rtentry$$00000004)
    .ARM.Collect$$rtentry$$00000009          0x080002a6   Section        0  __rtentry2.o(.ARM.Collect$$rtentry$$00000009)
    .ARM.Collect$$rtentry$$0000000A          0x080002a6   Section        4  __rtentry2.o(.ARM.Collect$$rtentry$$0000000A)
    .ARM.Collect$$rtentry$$0000000C          0x080002aa   Section        0  __rtentry2.o(.ARM.Collect$$rtentry$$0000000C)
    .ARM.Collect$$rtentry$$0000000D          0x080002aa   Section        8  __rtentry2.o(.ARM.Collect$$rtentry$$0000000D)
    .ARM.Collect$$rtexit$$00000000           0x080002b2   Section        2  rtexit.o(.ARM.Collect$$rtexit$$00000000)
    .ARM.Collect$$rtexit$$00000002           0x080002b4   Section        0  rtexit2.o(.ARM.Collect$$rtexit$$00000002)
    .ARM.Collect$$rtexit$$00000003           0x080002b4   Section        4  rtexit2.o(.ARM.Collect$$rtexit$$00000003)
    .ARM.Collect$$rtexit$$00000004           0x080002b8   Section        6  rtexit2.o(.ARM.Collect$$rtexit$$00000004)
    .emb_text                                0x080002c0   Section        0  maybetermalloc1.o(.emb_text)
    .text                                    0x080002c0   Section       64  startup_stm32f10x_hd.o(.text)
    .text                                    0x08000300   Section        0  h1_alloc.o(.text)
    .text                                    0x0800035e   Section        0  h1_free.o(.text)
    .text                                    0x080003ac   Section        0  tolower.o(.text)
    .text                                    0x080003c8   Section        0  c89vsnprintf.o(.text)
    .text                                    0x080003fc   Section        0  __2sprintf.o(.text)
    .text                                    0x08000428   Section        0  _printf_pad.o(.text)
    .text                                    0x08000476   Section        0  _printf_str.o(.text)
    .text                                    0x080004c8   Section        0  _printf_dec.o(.text)
    .text                                    0x08000540   Section        0  _printf_hex_int_ll_ptr.o(.text)
    _printf_hex_common                       0x08000541   Thumb Code     0  _printf_hex_int_ll_ptr.o(.text)
    .text                                    0x080005d4   Section        0  __printf_flags_ss_wp.o(.text)
    .text                                    0x0800075c   Section        0  atoi.o(.text)
    .text                                    0x08000776   Section        0  strchr.o(.text)
    .text                                    0x0800078a   Section        0  strncat.o(.text)
    .text                                    0x080007ae   Section        0  strstr.o(.text)
    .text                                    0x080007d2   Section        0  strlen.o(.text)
    .text                                    0x08000810   Section        0  strncmp.o(.text)
    .text                                    0x080008a6   Section      138  rt_memcpy_v6.o(.text)
    .text                                    0x08000930   Section      100  rt_memcpy_w.o(.text)
    .text                                    0x08000994   Section       68  rt_memclr.o(.text)
    .text                                    0x080009d8   Section       78  rt_memclr_w.o(.text)
    .text                                    0x08000a26   Section        0  heapauxi.o(.text)
    .text                                    0x08000a2c   Section       16  rt_ctype_table.o(.text)
    .text                                    0x08000a3c   Section        8  rt_heap_descriptor_intlibspace.o(.text)
    .text                                    0x08000a44   Section        8  rt_errno_addr_intlibspace.o(.text)
    .text                                    0x08000a4c   Section        0  hguard.o(.text)
    .text                                    0x08000a50   Section        0  init_alloc.o(.text)
    .text                                    0x08000ada   Section        0  h1_init.o(.text)
    .text                                    0x08000ae8   Section        0  _rserrno.o(.text)
    .text                                    0x08000afe   Section        0  _printf_truncate.o(.text)
    .text                                    0x08000b22   Section        0  _printf_intcommon.o(.text)
    .text                                    0x08000bd4   Section        0  _printf_charcount.o(.text)
    .text                                    0x08000bfc   Section        0  _printf_fp_dec.o(.text)
    _fp_digits                               0x08000bff   Thumb Code   428  _printf_fp_dec.o(.text)
    .text                                    0x08001018   Section        0  _printf_char_common.o(.text)
    _printf_input_char                       0x08001019   Thumb Code    10  _printf_char_common.o(.text)
    .text                                    0x08001048   Section        0  _sputc.o(.text)
    .text                                    0x08001052   Section        0  _snputc.o(.text)
    .text                                    0x08001062   Section        0  _printf_char.o(.text)
    .text                                    0x08001090   Section        0  _printf_wctomb.o(.text)
    .text                                    0x0800114c   Section        0  _printf_longlong_dec.o(.text)
    .text                                    0x080011c8   Section        0  _printf_oct_int_ll.o(.text)
    _printf_longlong_oct_internal            0x080011c9   Thumb Code     0  _printf_oct_int_ll.o(.text)
    .text                                    0x08001238   Section        0  strtol.o(.text)
    .text                                    0x080012a8   Section        8  libspace.o(.text)
    .text                                    0x080012b0   Section        8  rt_locale_intlibspace.o(.text)
    .text                                    0x080012b8   Section        0  h1_extend.o(.text)
    .text                                    0x080012ec   Section      138  lludiv10.o(.text)
    .text                                    0x08001378   Section        0  _printf_fp_infnan.o(.text)
    .text                                    0x080013f8   Section        0  _printf_wchar.o(.text)
    .text                                    0x08001424   Section        0  _strtoul.o(.text)
    .text                                    0x080014c4   Section        0  bigflt0.o(.text)
    .text                                    0x080015a0   Section        0  _wcrtomb.o(.text)
    .text                                    0x080015e0   Section        0  defsig_rtmem_outer.o(.text)
    .text                                    0x080015ee   Section        2  use_no_semi.o(.text)
    .text                                    0x080015f0   Section        0  indicate_semi.o(.text)
    .text                                    0x080015f0   Section       74  sys_stackheap_outer.o(.text)
    .text                                    0x0800163a   Section        0  _chval.o(.text)
    .text                                    0x08001656   Section        0  exit.o(.text)
    .text                                    0x08001662   Section        0  defsig_exit.o(.text)
    .text                                    0x0800166c   Section        0  defsig_rtmem_inner.o(.text)
    .text                                    0x080016bc   Section      128  strcmpv7m.o(.text)
    .text                                    0x0800173c   Section        0  sys_exit.o(.text)
    .text                                    0x08001748   Section        0  defsig_general.o(.text)
    .text                                    0x0800177a   Section        0  sys_wrch.o(.text)
    CL$$btod_d2e                             0x08001788   Section       62  btod.o(CL$$btod_d2e)
    CL$$btod_d2e_denorm_low                  0x080017c6   Section       70  btod.o(CL$$btod_d2e_denorm_low)
    CL$$btod_d2e_norm_op1                    0x0800180c   Section       96  btod.o(CL$$btod_d2e_norm_op1)
    CL$$btod_div_common                      0x0800186c   Section      824  btod.o(CL$$btod_div_common)
    CL$$btod_e2e                             0x08001ba4   Section      198  btod.o(CL$$btod_e2e)
    CL$$btod_ediv                            0x08001c6a   Section       40  btod.o(CL$$btod_ediv)
    CL$$btod_emul                            0x08001c92   Section       40  btod.o(CL$$btod_emul)
    CL$$btod_mult_common                     0x08001cba   Section      580  btod.o(CL$$btod_mult_common)
    i.Add_FR                                 0x08001f00   Section        0  as608.o(i.Add_FR)
    i.BusFault_Handler                       0x08002360   Section        0  stm32f10x_it.o(i.BusFault_Handler)
    i.DebugMon_Handler                       0x08002364   Section        0  stm32f10x_it.o(i.DebugMon_Handler)
    i.ESP8266_Clear                          0x08002368   Section        0  esp8266.o(i.ESP8266_Clear)
    i.ESP8266_GetIPD                         0x08002384   Section        0  esp8266.o(i.ESP8266_GetIPD)
    i.ESP8266_Init                           0x080023d4   Section        0  esp8266.o(i.ESP8266_Init)
    i.ESP8266_SendCmd                        0x080025c0   Section        0  esp8266.o(i.ESP8266_SendCmd)
    i.ESP8266_SendData                       0x08002614   Section        0  esp8266.o(i.ESP8266_SendData)
    i.ESP8266_WaitRecive                     0x0800265c   Section        0  esp8266.o(i.ESP8266_WaitRecive)
    i.EnsureMessage                          0x08002690   Section        0  as608.o(i.EnsureMessage)
    i.GPIO_Init                              0x080028e8   Section        0  stm32f10x_gpio.o(i.GPIO_Init)
    i.GPIO_ReadInputDataBit                  0x080029fe   Section        0  stm32f10x_gpio.o(i.GPIO_ReadInputDataBit)
    i.GPIO_ResetBits                         0x08002a10   Section        0  stm32f10x_gpio.o(i.GPIO_ResetBits)
    i.GPIO_SetBits                           0x08002a14   Section        0  stm32f10x_gpio.o(i.GPIO_SetBits)
    i.HardFault_Handler                      0x08002a18   Section        0  stm32f10x_it.o(i.HardFault_Handler)
    i.Hardware_Init                          0x08002a1c   Section        0  main.o(i.Hardware_Init)
    i.IIC_Ack                                0x08002a54   Section        0  myiic.o(i.IIC_Ack)
    i.IIC_Init                               0x08002aa4   Section        0  myiic.o(i.IIC_Init)
    i.IIC_NAck                               0x08002ad8   Section        0  myiic.o(i.IIC_NAck)
    i.IIC_Read_Byte                          0x08002b28   Section        0  myiic.o(i.IIC_Read_Byte)
    i.IIC_Send_Byte                          0x08002b98   Section        0  myiic.o(i.IIC_Send_Byte)
    i.IIC_Start                              0x08002c00   Section        0  myiic.o(i.IIC_Start)
    i.IIC_Stop                               0x08002c4c   Section        0  myiic.o(i.IIC_Stop)
    i.IIC_Wait_Ack                           0x08002c98   Section        0  myiic.o(i.IIC_Wait_Ack)
    i.JudgeStr                               0x08002cfc   Section        0  as608.o(i.JudgeStr)
    JudgeStr                                 0x08002cfd   Thumb Code   122  as608.o(i.JudgeStr)
    i.KEY_Init                               0x08002d84   Section        0  key.o(i.KEY_Init)
    i.KEY_Scan                               0x08002da8   Section        0  key.o(i.KEY_Scan)
    i.MQTT_DeleteBuffer                      0x08002e44   Section        0  mqttkit.o(i.MQTT_DeleteBuffer)
    i.MQTT_DumpLength                        0x08002e60   Section        0  mqttkit.o(i.MQTT_DumpLength)
    i.MQTT_NewBuffer                         0x08002e8e   Section        0  mqttkit.o(i.MQTT_NewBuffer)
    i.MQTT_PacketCmdResp                     0x08002ee8   Section        0  mqttkit.o(i.MQTT_PacketCmdResp)
    i.MQTT_PacketConnect                     0x08002f74   Section        0  mqttkit.o(i.MQTT_PacketConnect)
    i.MQTT_PacketPublish                     0x08003214   Section        0  mqttkit.o(i.MQTT_PacketPublish)
    i.MQTT_PacketPublishAck                  0x080033cc   Section        0  mqttkit.o(i.MQTT_PacketPublishAck)
    i.MQTT_PacketPublishComp                 0x08003414   Section        0  mqttkit.o(i.MQTT_PacketPublishComp)
    i.MQTT_PacketPublishRec                  0x0800345c   Section        0  mqttkit.o(i.MQTT_PacketPublishRec)
    i.MQTT_PacketPublishRel                  0x080034a4   Section        0  mqttkit.o(i.MQTT_PacketPublishRel)
    i.MQTT_PacketSubscribe                   0x080034ec   Section        0  mqttkit.o(i.MQTT_PacketSubscribe)
    i.MQTT_ReadLength                        0x080035ea   Section        0  mqttkit.o(i.MQTT_ReadLength)
    i.MQTT_UnPacketCmd                       0x08003630   Section        0  mqttkit.o(i.MQTT_UnPacketCmd)
    i.MQTT_UnPacketConnectAck                0x080036bc   Section        0  mqttkit.o(i.MQTT_UnPacketConnectAck)
    i.MQTT_UnPacketPublish                   0x080036dc   Section        0  mqttkit.o(i.MQTT_UnPacketPublish)
    i.MQTT_UnPacketPublishAck                0x0800389c   Section        0  mqttkit.o(i.MQTT_UnPacketPublishAck)
    i.MQTT_UnPacketPublishComp               0x080038ba   Section        0  mqttkit.o(i.MQTT_UnPacketPublishComp)
    i.MQTT_UnPacketPublishRec                0x080038d8   Section        0  mqttkit.o(i.MQTT_UnPacketPublishRec)
    i.MQTT_UnPacketPublishRel                0x080038f6   Section        0  mqttkit.o(i.MQTT_UnPacketPublishRel)
    i.MQTT_UnPacketRecv                      0x0800391c   Section        0  mqttkit.o(i.MQTT_UnPacketRecv)
    i.MQTT_UnPacketSubscribe                 0x08003990   Section        0  mqttkit.o(i.MQTT_UnPacketSubscribe)
    i.MQTT_UnPacketUnSubscribe               0x080039c4   Section        0  mqttkit.o(i.MQTT_UnPacketUnSubscribe)
    i.MYUSART_SendData                       0x080039d8   Section        0  as608.o(i.MYUSART_SendData)
    MYUSART_SendData                         0x080039d9   Thumb Code    22  as608.o(i.MYUSART_SendData)
    i.MemManage_Handler                      0x080039f4   Section        0  stm32f10x_it.o(i.MemManage_Handler)
    i.NMI_Handler                            0x080039f8   Section        0  stm32f10x_it.o(i.NMI_Handler)
    i.NVIC_Configuration                     0x080039fa   Section        0  sys.o(i.NVIC_Configuration)
    i.NVIC_Init                              0x08003a08   Section        0  misc.o(i.NVIC_Init)
    i.NVIC_PriorityGroupConfig               0x08003a78   Section        0  misc.o(i.NVIC_PriorityGroupConfig)
    i.OLED_Clear                             0x08003a8c   Section        0  oled.o(i.OLED_Clear)
    i.OLED_ClearPoint                        0x08003abc   Section        0  oled.o(i.OLED_ClearPoint)
    i.OLED_DrawPoint                         0x08003b1c   Section        0  oled.o(i.OLED_DrawPoint)
    i.OLED_Init                              0x08003b58   Section        0  oled.o(i.OLED_Init)
    i.OLED_Pow                               0x08003ce0   Section        0  oled.o(i.OLED_Pow)
    i.OLED_Refresh                           0x08003cf8   Section        0  oled.o(i.OLED_Refresh)
    i.OLED_ShowChar                          0x08003d44   Section        0  oled.o(i.OLED_ShowChar)
    i.OLED_ShowChinese                       0x08003e40   Section        0  oled.o(i.OLED_ShowChinese)
    i.OLED_ShowNum                           0x08003f48   Section        0  oled.o(i.OLED_ShowNum)
    i.OLED_Show_Await_Face                   0x08003fbc   Section        0  oled.o(i.OLED_Show_Await_Face)
    i.OLED_WR_Byte                           0x080040d0   Section        0  oled.o(i.OLED_WR_Byte)
    i.OneNet_DevLink                         0x08004150   Section        0  onenet.o(i.OneNet_DevLink)
    i.OneNet_Publish                         0x08004370   Section        0  onenet.o(i.OneNet_Publish)
    i.OneNet_RevPro                          0x080043ec   Section        0  onenet.o(i.OneNet_RevPro)
    i.OneNet_Subscribe                       0x08004974   Section        0  onenet.o(i.OneNet_Subscribe)
    i.PEC_Calculation                        0x080049e0   Section        0  iic2.o(i.PEC_Calculation)
    i.PS_GenChar                             0x08004a9a   Section        0  as608.o(i.PS_GenChar)
    i.PS_GetImage                            0x08004ae0   Section        0  as608.o(i.PS_GetImage)
    i.PS_HighSpeedSearch                     0x08004b1a   Section        0  as608.o(i.PS_HighSpeedSearch)
    i.PS_Match                               0x08004baa   Section        0  as608.o(i.PS_Match)
    i.PS_RegModel                            0x08004be4   Section        0  as608.o(i.PS_RegModel)
    i.PS_StoreChar                           0x08004c1e   Section        0  as608.o(i.PS_StoreChar)
    i.PendSV_Handler                         0x08004c7e   Section        0  stm32f10x_it.o(i.PendSV_Handler)
    i.RCC_APB1PeriphClockCmd                 0x08004c80   Section        0  stm32f10x_rcc.o(i.RCC_APB1PeriphClockCmd)
    i.RCC_APB2PeriphClockCmd                 0x08004ca0   Section        0  stm32f10x_rcc.o(i.RCC_APB2PeriphClockCmd)
    i.RCC_GetClocksFreq                      0x08004cc0   Section        0  stm32f10x_rcc.o(i.RCC_GetClocksFreq)
    i.SMBus_Delay                            0x08004d94   Section        0  iic2.o(i.SMBus_Delay)
    i.SMBus_Init                             0x08004db0   Section        0  iic2.o(i.SMBus_Init)
    i.SMBus_ReadMemory                       0x08004dec   Section        0  iic2.o(i.SMBus_ReadMemory)
    i.SMBus_ReadTemp                         0x08004e94   Section        0  iic2.o(i.SMBus_ReadTemp)
    i.SMBus_ReceiveBit                       0x08004ed8   Section        0  iic2.o(i.SMBus_ReceiveBit)
    i.SMBus_ReceiveByte                      0x08004f20   Section        0  iic2.o(i.SMBus_ReceiveByte)
    i.SMBus_SendBit                          0x08004f54   Section        0  iic2.o(i.SMBus_SendBit)
    i.SMBus_SendByte                         0x08004f98   Section        0  iic2.o(i.SMBus_SendByte)
    i.SMBus_StartBit                         0x08004fc8   Section        0  iic2.o(i.SMBus_StartBit)
    i.SMBus_StopBit                          0x0800500c   Section        0  iic2.o(i.SMBus_StopBit)
    i.SVC_Handler                            0x0800504c   Section        0  stm32f10x_it.o(i.SVC_Handler)
    i.SendAddr                               0x08005050   Section        0  as608.o(i.SendAddr)
    SendAddr                                 0x08005051   Thumb Code    46  as608.o(i.SendAddr)
    i.SendCheck                              0x08005084   Section        0  as608.o(i.SendCheck)
    SendCheck                                0x08005085   Thumb Code    18  as608.o(i.SendCheck)
    i.SendFlag                               0x08005096   Section        0  as608.o(i.SendFlag)
    SendFlag                                 0x08005097   Thumb Code    12  as608.o(i.SendFlag)
    i.SendHead                               0x080050a2   Section        0  as608.o(i.SendHead)
    SendHead                                 0x080050a3   Thumb Code    16  as608.o(i.SendHead)
    i.SendLength                             0x080050b2   Section        0  as608.o(i.SendLength)
    SendLength                               0x080050b3   Thumb Code    20  as608.o(i.SendLength)
    i.Sendcmd                                0x080050c6   Section        0  as608.o(i.Sendcmd)
    Sendcmd                                  0x080050c7   Thumb Code    12  as608.o(i.Sendcmd)
    i.SetSysClock                            0x080050d2   Section        0  system_stm32f10x.o(i.SetSysClock)
    SetSysClock                              0x080050d3   Thumb Code     8  system_stm32f10x.o(i.SetSysClock)
    i.SetSysClockTo72                        0x080050dc   Section        0  system_stm32f10x.o(i.SetSysClockTo72)
    SetSysClockTo72                          0x080050dd   Thumb Code   214  system_stm32f10x.o(i.SetSysClockTo72)
    i.ShowErrMessage                         0x080051bc   Section        0  as608.o(i.ShowErrMessage)
    i.SysTick_CLKSourceConfig                0x080051d8   Section        0  misc.o(i.SysTick_CLKSourceConfig)
    i.SysTick_Handler                        0x08005200   Section        0  stm32f10x_it.o(i.SysTick_Handler)
    i.SystemInit                             0x08005204   Section        0  system_stm32f10x.o(i.SystemInit)
    i.TIM2_IRQHandler                        0x08005264   Section        0  timer.o(i.TIM2_IRQHandler)
    i.TIM3_IRQHandler                        0x0800527c   Section        0  timer.o(i.TIM3_IRQHandler)
    i.TIM7_IRQHandler                        0x08005298   Section        0  timer.o(i.TIM7_IRQHandler)
    i.TIM7_Int_Init                          0x080052cc   Section        0  timer.o(i.TIM7_Int_Init)
    i.TIM_ClearITPendingBit                  0x0800532c   Section        0  stm32f10x_tim.o(i.TIM_ClearITPendingBit)
    i.TIM_Cmd                                0x08005332   Section        0  stm32f10x_tim.o(i.TIM_Cmd)
    i.TIM_GetITStatus                        0x0800534a   Section        0  stm32f10x_tim.o(i.TIM_GetITStatus)
    i.TIM_ITConfig                           0x0800536c   Section        0  stm32f10x_tim.o(i.TIM_ITConfig)
    i.TIM_SetCounter                         0x0800537e   Section        0  stm32f10x_tim.o(i.TIM_SetCounter)
    i.TIM_TimeBaseInit                       0x08005384   Section        0  stm32f10x_tim.o(i.TIM_TimeBaseInit)
    i.UART4_IRQHandler                       0x08005428   Section        0  usart.o(i.UART4_IRQHandler)
    i.USART1_IRQHandler                      0x08005498   Section        0  usart.o(i.USART1_IRQHandler)
    i.USART2_IRQHandler                      0x080054b4   Section        0  esp8266.o(i.USART2_IRQHandler)
    i.USART_ClearFlag                        0x08005500   Section        0  stm32f10x_usart.o(i.USART_ClearFlag)
    i.USART_Cmd                              0x08005512   Section        0  stm32f10x_usart.o(i.USART_Cmd)
    i.USART_GetFlagStatus                    0x0800552a   Section        0  stm32f10x_usart.o(i.USART_GetFlagStatus)
    i.USART_GetITStatus                      0x08005544   Section        0  stm32f10x_usart.o(i.USART_GetITStatus)
    i.USART_ITConfig                         0x08005598   Section        0  stm32f10x_usart.o(i.USART_ITConfig)
    i.USART_Init                             0x080055e4   Section        0  stm32f10x_usart.o(i.USART_Init)
    i.USART_ReceiveData                      0x080056bc   Section        0  stm32f10x_usart.o(i.USART_ReceiveData)
    i.USART_SendData                         0x080056c6   Section        0  stm32f10x_usart.o(i.USART_SendData)
    i.UsageFault_Handler                     0x080056ce   Section        0  stm32f10x_it.o(i.UsageFault_Handler)
    i.Usart1_Init                            0x080056d4   Section        0  usart.o(i.Usart1_Init)
    i.Usart2_Init                            0x08005784   Section        0  usart.o(i.Usart2_Init)
    i.Usart4_Init                            0x08005830   Section        0  usart.o(i.Usart4_Init)
    i.UsartPrintf                            0x08005900   Section        0  usart.o(i.UsartPrintf)
    i.Usart_SendString                       0x08005948   Section        0  usart.o(i.Usart_SendString)
    i.__ARM_fpclassify                       0x0800597a   Section        0  fpclassify.o(i.__ARM_fpclassify)
    i.__kernel_poly                          0x080059a2   Section        0  poly.o(i.__kernel_poly)
    i.__mathlib_dbl_divzero                  0x08005a4c   Section        0  dunder.o(i.__mathlib_dbl_divzero)
    i.__mathlib_dbl_infnan2                  0x08005a5c   Section        0  dunder.o(i.__mathlib_dbl_infnan2)
    i.__mathlib_dbl_invalid                  0x08005a60   Section        0  dunder.o(i.__mathlib_dbl_invalid)
    i.__mathlib_dbl_overflow                 0x08005a6c   Section        0  dunder.o(i.__mathlib_dbl_overflow)
    i.__mathlib_dbl_underflow                0x08005a7c   Section        0  dunder.o(i.__mathlib_dbl_underflow)
    i._is_digit                              0x08005a8c   Section        0  __printf_wp.o(i._is_digit)
    i.cJSON_Delete                           0x08005a9c   Section        0  cjson.o(i.cJSON_Delete)
    i.cJSON_GetErrorPtr                      0x08005af4   Section        0  cjson.o(i.cJSON_GetErrorPtr)
    i.cJSON_GetObjectItem                    0x08005b00   Section        0  cjson.o(i.cJSON_GetObjectItem)
    i.cJSON_New_Item                         0x08005b20   Section        0  cjson.o(i.cJSON_New_Item)
    cJSON_New_Item                           0x08005b21   Thumb Code    26  cjson.o(i.cJSON_New_Item)
    i.cJSON_Parse                            0x08005b40   Section        0  cjson.o(i.cJSON_Parse)
    i.cJSON_ParseWithOpts                    0x08005b50   Section        0  cjson.o(i.cJSON_ParseWithOpts)
    i.cJSON_strcasecmp                       0x08005bb4   Section        0  cjson.o(i.cJSON_strcasecmp)
    cJSON_strcasecmp                         0x08005bb5   Thumb Code    76  cjson.o(i.cJSON_strcasecmp)
    i.delay_init                             0x08005c00   Section        0  delay.o(i.delay_init)
    i.delay_ms                               0x08005c44   Section        0  delay.o(i.delay_ms)
    i.delay_us                               0x08005c90   Section        0  delay.o(i.delay_us)
    i.get_heartblood                         0x08005cdc   Section        0  main.o(i.get_heartblood)
    i.get_temperature                        0x08006184   Section        0  main.o(i.get_temperature)
    i.main                                   0x080063ec   Section        0  main.o(i.main)
    i.max30102_Bus_Read                      0x080064cc   Section        0  max30102.o(i.max30102_Bus_Read)
    i.max30102_Bus_Write                     0x0800651e   Section        0  max30102.o(i.max30102_Bus_Write)
    i.max30102_FIFO_ReadBytes                0x08006562   Section        0  max30102.o(i.max30102_FIFO_ReadBytes)
    i.max30102_init                          0x080065e4   Section        0  max30102.o(i.max30102_init)
    i.max30102_reset                         0x0800666c   Section        0  max30102.o(i.max30102_reset)
    i.maxim_find_peaks                       0x08006680   Section        0  algorithm.o(i.maxim_find_peaks)
    i.maxim_heart_rate_and_oxygen_saturation 0x080066c4   Section        0  algorithm.o(i.maxim_heart_rate_and_oxygen_saturation)
    i.maxim_peaks_above_min_height           0x08006bc4   Section        0  algorithm.o(i.maxim_peaks_above_min_height)
    i.maxim_remove_close_peaks               0x08006c3e   Section        0  algorithm.o(i.maxim_remove_close_peaks)
    i.maxim_sort_ascend                      0x08006cb0   Section        0  algorithm.o(i.maxim_sort_ascend)
    i.maxim_sort_indices_descend             0x08006ce6   Section        0  algorithm.o(i.maxim_sort_indices_descend)
    i.parse_array                            0x08006d28   Section        0  cjson.o(i.parse_array)
    parse_array                              0x08006d29   Thumb Code   166  cjson.o(i.parse_array)
    i.parse_hex4                             0x08006dd4   Section        0  cjson.o(i.parse_hex4)
    parse_hex4                               0x08006dd5   Thumb Code   276  cjson.o(i.parse_hex4)
    i.parse_number                           0x08006ee8   Section        0  cjson.o(i.parse_number)
    parse_number                             0x08006ee9   Thumb Code   432  cjson.o(i.parse_number)
    i.parse_object                           0x080070a4   Section        0  cjson.o(i.parse_object)
    parse_object                             0x080070a5   Thumb Code   270  cjson.o(i.parse_object)
    i.parse_string                           0x080071b8   Section        0  cjson.o(i.parse_string)
    parse_string                             0x080071b9   Thumb Code   448  cjson.o(i.parse_string)
    i.parse_value                            0x08007384   Section        0  cjson.o(i.parse_value)
    parse_value                              0x08007385   Thumb Code   158  cjson.o(i.parse_value)
    i.pow                                    0x08007440   Section        0  pow.o(i.pow)
    i.press_FR                               0x08007df8   Section        0  as608.o(i.press_FR)
    i.skip                                   0x08008050   Section        0  cjson.o(i.skip)
    skip                                     0x08008051   Thumb Code    18  cjson.o(i.skip)
    i.sqrt                                   0x08008062   Section        0  sqrt.o(i.sqrt)
    locale$$code                             0x080080b0   Section       44  lc_ctype_c.o(locale$$code)
    locale$$code                             0x080080dc   Section       44  lc_numeric_c.o(locale$$code)
    x$fpl$d2f                                0x08008108   Section       98  d2f.o(x$fpl$d2f)
    x$fpl$dadd                               0x0800816c   Section      336  daddsub_clz.o(x$fpl$dadd)
    _dadd1                                   0x0800817d   Thumb Code     0  daddsub_clz.o(x$fpl$dadd)
    x$fpl$dcheck1                            0x080082bc   Section       16  dcheck1.o(x$fpl$dcheck1)
    x$fpl$dcmpinf                            0x080082cc   Section       24  dcmpi.o(x$fpl$dcmpinf)
    x$fpl$ddiv                               0x080082e4   Section      688  ddiv.o(x$fpl$ddiv)
    ddiv_entry                               0x080082eb   Thumb Code     0  ddiv.o(x$fpl$ddiv)
    x$fpl$dfix                               0x08008594   Section       94  dfix.o(x$fpl$dfix)
    x$fpl$dflt                               0x080085f2   Section       46  dflt_clz.o(x$fpl$dflt)
    x$fpl$dfltu                              0x08008620   Section       38  dflt_clz.o(x$fpl$dfltu)
    x$fpl$dleqf                              0x08008648   Section      120  dleqf.o(x$fpl$dleqf)
    x$fpl$dmul                               0x080086c0   Section      340  dmul.o(x$fpl$dmul)
    x$fpl$dnaninf                            0x08008814   Section      156  dnaninf.o(x$fpl$dnaninf)
    x$fpl$dretinf                            0x080088b0   Section       12  dretinf.o(x$fpl$dretinf)
    x$fpl$drleqf                             0x080088bc   Section      108  drleqf.o(x$fpl$drleqf)
    x$fpl$drsb                               0x08008928   Section       22  daddsub_clz.o(x$fpl$drsb)
    x$fpl$dsqrt                              0x08008940   Section      460  dsqrt_noumaal.o(x$fpl$dsqrt)
    x$fpl$dsub                               0x08008b0c   Section      468  daddsub_clz.o(x$fpl$dsub)
    _dsub1                                   0x08008b1d   Thumb Code     0  daddsub_clz.o(x$fpl$dsub)
    x$fpl$f2d                                0x08008ce0   Section       86  f2d.o(x$fpl$f2d)
    x$fpl$ffix                               0x08008d38   Section       54  ffix.o(x$fpl$ffix)
    x$fpl$fmul                               0x08008d70   Section      258  fmul.o(x$fpl$fmul)
    x$fpl$fnaninf                            0x08008e72   Section      140  fnaninf.o(x$fpl$fnaninf)
    x$fpl$fretinf                            0x08008efe   Section       10  fretinf.o(x$fpl$fretinf)
    x$fpl$printf1                            0x08008f08   Section        4  printf1.o(x$fpl$printf1)
    x$fpl$retnan                             0x08008f0c   Section      100  retnan.o(x$fpl$retnan)
    x$fpl$scalbn                             0x08008f70   Section       92  scalbn.o(x$fpl$scalbn)
    x$fpl$trapveneer                         0x08008fcc   Section       48  trapv.o(x$fpl$trapveneer)
    .constdata                               0x08008ffc   Section     6080  oled.o(.constdata)
    x$fpl$usenofp                            0x08008ffc   Section        0  usenofp.o(x$fpl$usenofp)
    .constdata                               0x0800a7bc   Section      246  algorithm.o(.constdata)
    .constdata                               0x0800a8b2   Section        7  cjson.o(.constdata)
    firstByteMark                            0x0800a8b2   Data           7  cjson.o(.constdata)
    .constdata                               0x0800a8b9   Section       40  _printf_hex_int_ll_ptr.o(.constdata)
    uc_hextab                                0x0800a8b9   Data          20  _printf_hex_int_ll_ptr.o(.constdata)
    lc_hextab                                0x0800a8cd   Data          20  _printf_hex_int_ll_ptr.o(.constdata)
    .constdata                               0x0800a8e1   Section       17  __printf_flags_ss_wp.o(.constdata)
    maptable                                 0x0800a8e1   Data          17  __printf_flags_ss_wp.o(.constdata)
    .constdata                               0x0800a8f8   Section      136  pow.o(.constdata)
    bp                                       0x0800a8f8   Data          16  pow.o(.constdata)
    dp_h                                     0x0800a908   Data          16  pow.o(.constdata)
    dp_l                                     0x0800a918   Data          16  pow.o(.constdata)
    L                                        0x0800a928   Data          48  pow.o(.constdata)
    P                                        0x0800a958   Data          40  pow.o(.constdata)
    .constdata                               0x0800a980   Section        8  _printf_wctomb.o(.constdata)
    initial_mbstate                          0x0800a980   Data           8  _printf_wctomb.o(.constdata)
    .constdata                               0x0800a988   Section        8  qnan.o(.constdata)
    .constdata                               0x0800a990   Section      148  bigflt0.o(.constdata)
    tenpwrs_x                                0x0800a990   Data          60  bigflt0.o(.constdata)
    tenpwrs_i                                0x0800a9cc   Data          64  bigflt0.o(.constdata)
    .conststring                             0x0800aa24   Section       26  main.o(.conststring)
    locale$$data                             0x0800aa60   Section      272  lc_ctype_c.o(locale$$data)
    __lcctype_c_name                         0x0800aa64   Data           2  lc_ctype_c.o(locale$$data)
    __lcctype_c_start                        0x0800aa6c   Data           0  lc_ctype_c.o(locale$$data)
    locale$$data                             0x0800ab70   Section       28  lc_numeric_c.o(locale$$data)
    __lcctype_c_end                          0x0800ab70   Data           0  lc_ctype_c.o(locale$$data)
    __lcnum_c_name                           0x0800ab74   Data           2  lc_numeric_c.o(locale$$data)
    __lcnum_c_start                          0x0800ab7c   Data           0  lc_numeric_c.o(locale$$data)
    __lcnum_c_point                          0x0800ab88   Data           0  lc_numeric_c.o(locale$$data)
    __lcnum_c_thousands                      0x0800ab8a   Data           0  lc_numeric_c.o(locale$$data)
    __lcnum_c_grouping                       0x0800ab8b   Data           0  lc_numeric_c.o(locale$$data)
    __lcnum_c_end                            0x0800ab8c   Data           0  lc_numeric_c.o(locale$$data)
    .data                                    0x20000000   Section       44  main.o(.data)
    .data                                    0x2000002c   Section       20  system_stm32f10x.o(.data)
    .data                                    0x20000040   Section        4  delay.o(.data)
    fac_us                                   0x20000040   Data           1  delay.o(.data)
    fac_ms                                   0x20000042   Data           2  delay.o(.data)
    .data                                    0x20000044   Section        2  usart.o(.data)
    .data                                    0x20000046   Section       20  stm32f10x_rcc.o(.data)
    APBAHBPrescTable                         0x20000046   Data          16  stm32f10x_rcc.o(.data)
    ADCPrescTable                            0x20000056   Data           4  stm32f10x_rcc.o(.data)
    .data                                    0x2000005a   Section        1  key.o(.data)
    key_up                                   0x2000005a   Data           1  key.o(.data)
    .data                                    0x2000005b   Section     7064  oled.o(.data)
    .data                                    0x20001bf4   Section       10  as608.o(.data)
    .data                                    0x20001bfe   Section        4  esp8266.o(.data)
    .data                                    0x20001c04   Section        6  onenet.o(.data)
    pkt_id                                   0x20001c08   Data           2  onenet.o(.data)
    .data                                    0x20001c0c   Section       12  cjson.o(.data)
    ep                                       0x20001c0c   Data           4  cjson.o(.data)
    cJSON_malloc                             0x20001c10   Data           4  cjson.o(.data)
    cJSON_free                               0x20001c14   Data           4  cjson.o(.data)
    .bss                                     0x20001c18   Section     4128  main.o(.bss)
    .bss                                     0x20002c38   Section      800  usart.o(.bss)
    .bss                                     0x20002f58   Section     1152  oled.o(.bss)
    .bss                                     0x200033d8   Section     5984  algorithm.o(.bss)
    an_dx                                    0x200033d8   Data        1984  algorithm.o(.bss)
    an_x                                     0x20003b98   Data        2000  algorithm.o(.bss)
    an_y                                     0x20004368   Data        2000  algorithm.o(.bss)
    .bss                                     0x20004b38   Section      128  esp8266.o(.bss)
    .bss                                     0x20004bb8   Section       96  libspace.o(.bss)
    HEAP                                     0x20004c18   Section      512  startup_stm32f10x_hd.o(HEAP)
    Heap_Mem                                 0x20004c18   Data         512  startup_stm32f10x_hd.o(HEAP)
    STACK                                    0x20004e18   Section     1024  startup_stm32f10x_hd.o(STACK)
    Stack_Mem                                0x20004e18   Data        1024  startup_stm32f10x_hd.o(STACK)
    __initial_sp                             0x20005218   Data           0  startup_stm32f10x_hd.o(STACK)

    Global Symbols

    Symbol Name                              Value     Ov Type        Size  Object(Section)

    BuildAttributes$$THM_ISAv4$P$D$K$B$S$PE$A:L22UL41UL21$X:L11$S22US41US21$IEEE1$IW$USESV6$~STKCKD$USESV7$~SHL$OTIME$ROPI$IEEEX$EBA8$UX$STANDARDLIB$REQ8$PRES8$EABIv2 0x00000000   Number         0  anon$$obj.o ABSOLUTE
    __ARM_use_no_argv                        0x00000000   Number         0  main.o ABSOLUTE
    _printf_flags                            0x00000000   Number         0  printf_stubs.o ABSOLUTE
    _printf_return_value                     0x00000000   Number         0  printf_stubs.o ABSOLUTE
    _printf_sizespec                         0x00000000   Number         0  printf_stubs.o ABSOLUTE
    _printf_widthprec                        0x00000000   Number         0  printf_stubs.o ABSOLUTE
    __ARM_exceptions_init                     - Undefined Weak Reference
    __alloca_initialize                       - Undefined Weak Reference
    __arm_preinit_                            - Undefined Weak Reference
    __cpp_initialize__aeabi_                  - Undefined Weak Reference
    __cxa_finalize                            - Undefined Weak Reference
    __sigvec_lookup                           - Undefined Weak Reference
    __user_heap_extent                        - Undefined Weak Reference
    _atexit_init                              - Undefined Weak Reference
    _call_atexit_fns                          - Undefined Weak Reference
    _clock_init                               - Undefined Weak Reference
    _fp_trap_init                             - Undefined Weak Reference
    _fp_trap_shutdown                         - Undefined Weak Reference
    _get_lc_collate                           - Undefined Weak Reference
    _get_lc_monetary                          - Undefined Weak Reference
    _get_lc_time                              - Undefined Weak Reference
    _getenv_init                              - Undefined Weak Reference
    _handle_redirection                       - Undefined Weak Reference
    _mutex_acquire                            - Undefined Weak Reference
    _mutex_free                               - Undefined Weak Reference
    _mutex_release                            - Undefined Weak Reference
    _printf_fp_hex                            - Undefined Weak Reference
    _printf_mbtowc                            - Undefined Weak Reference
    _printf_wc                                - Undefined Weak Reference
    _rand_init                                - Undefined Weak Reference
    _signal_finish                            - Undefined Weak Reference
    _signal_init                              - Undefined Weak Reference
    __Vectors_Size                           0x00000130   Number         0  startup_stm32f10x_hd.o ABSOLUTE
    __Vectors                                0x08000000   Data           4  startup_stm32f10x_hd.o(RESET)
    __Vectors_End                            0x08000130   Data           0  startup_stm32f10x_hd.o(RESET)
    __main                                   0x08000131   Thumb Code     8  __main.o(!!!main)
    __scatterload                            0x08000139   Thumb Code     0  __scatter.o(!!!scatter)
    __scatterload_rt2                        0x08000139   Thumb Code    44  __scatter.o(!!!scatter)
    __scatterload_rt2_thumb_only             0x08000139   Thumb Code     0  __scatter.o(!!!scatter)
    __scatterload_null                       0x08000147   Thumb Code     0  __scatter.o(!!!scatter)
    __decompress                             0x0800016d   Thumb Code    90  __dczerorl2.o(!!dczerorl2)
    __decompress1                            0x0800016d   Thumb Code     0  __dczerorl2.o(!!dczerorl2)
    __scatterload_zeroinit                   0x080001c9   Thumb Code    28  __scatter_zi.o(!!handler_zi)
    _printf_n                                0x080001e5   Thumb Code     0  _printf_n.o(.ARM.Collect$$_printf_percent$$00000001)
    _printf_percent                          0x080001e5   Thumb Code     0  _printf_percent.o(.ARM.Collect$$_printf_percent$$00000000)
    _printf_p                                0x080001eb   Thumb Code     0  _printf_p.o(.ARM.Collect$$_printf_percent$$00000002)
    _printf_f                                0x080001f1   Thumb Code     0  _printf_f.o(.ARM.Collect$$_printf_percent$$00000003)
    _printf_e                                0x080001f7   Thumb Code     0  _printf_e.o(.ARM.Collect$$_printf_percent$$00000004)
    _printf_g                                0x080001fd   Thumb Code     0  _printf_g.o(.ARM.Collect$$_printf_percent$$00000005)
    _printf_a                                0x08000203   Thumb Code     0  _printf_a.o(.ARM.Collect$$_printf_percent$$00000006)
    _printf_ll                               0x08000209   Thumb Code     0  _printf_ll.o(.ARM.Collect$$_printf_percent$$00000007)
    _printf_i                                0x08000213   Thumb Code     0  _printf_i.o(.ARM.Collect$$_printf_percent$$00000008)
    _printf_d                                0x08000219   Thumb Code     0  _printf_d.o(.ARM.Collect$$_printf_percent$$00000009)
    _printf_u                                0x0800021f   Thumb Code     0  _printf_u.o(.ARM.Collect$$_printf_percent$$0000000A)
    _printf_o                                0x08000225   Thumb Code     0  _printf_o.o(.ARM.Collect$$_printf_percent$$0000000B)
    _printf_x                                0x0800022b   Thumb Code     0  _printf_x.o(.ARM.Collect$$_printf_percent$$0000000C)
    _printf_lli                              0x08000231   Thumb Code     0  _printf_lli.o(.ARM.Collect$$_printf_percent$$0000000D)
    _printf_lld                              0x08000237   Thumb Code     0  _printf_lld.o(.ARM.Collect$$_printf_percent$$0000000E)
    _printf_llu                              0x0800023d   Thumb Code     0  _printf_llu.o(.ARM.Collect$$_printf_percent$$0000000F)
    _printf_llo                              0x08000243   Thumb Code     0  _printf_llo.o(.ARM.Collect$$_printf_percent$$00000010)
    _printf_llx                              0x08000249   Thumb Code     0  _printf_llx.o(.ARM.Collect$$_printf_percent$$00000011)
    _printf_l                                0x0800024f   Thumb Code     0  _printf_l.o(.ARM.Collect$$_printf_percent$$00000012)
    _printf_c                                0x08000259   Thumb Code     0  _printf_c.o(.ARM.Collect$$_printf_percent$$00000013)
    _printf_s                                0x0800025f   Thumb Code     0  _printf_s.o(.ARM.Collect$$_printf_percent$$00000014)
    _printf_lc                               0x08000265   Thumb Code     0  _printf_lc.o(.ARM.Collect$$_printf_percent$$00000015)
    _printf_ls                               0x0800026b   Thumb Code     0  _printf_ls.o(.ARM.Collect$$_printf_percent$$00000016)
    _printf_percent_end                      0x08000271   Thumb Code     0  _printf_percent_end.o(.ARM.Collect$$_printf_percent$$00000017)
    __rt_lib_init                            0x08000275   Thumb Code     0  libinit.o(.ARM.Collect$$libinit$$00000000)
    __rt_lib_init_fp_1                       0x08000277   Thumb Code     0  libinit2.o(.ARM.Collect$$libinit$$00000002)
    __rt_lib_init_heap_2                     0x08000277   Thumb Code     0  libinit2.o(.ARM.Collect$$libinit$$00000005)
    __rt_lib_init_preinit_1                  0x08000277   Thumb Code     0  libinit2.o(.ARM.Collect$$libinit$$00000004)
    __rt_lib_init_heap_1                     0x0800027f   Thumb Code     0  libinit2.o(.ARM.Collect$$libinit$$0000000A)
    __rt_lib_init_lc_common                  0x0800027f   Thumb Code     0  libinit2.o(.ARM.Collect$$libinit$$0000000F)
    __rt_lib_init_rand_1                     0x0800027f   Thumb Code     0  libinit2.o(.ARM.Collect$$libinit$$0000000E)
    __rt_lib_init_user_alloc_1               0x0800027f   Thumb Code     0  libinit2.o(.ARM.Collect$$libinit$$0000000C)
    __rt_lib_init_lc_collate_1               0x08000285   Thumb Code     0  libinit2.o(.ARM.Collect$$libinit$$00000011)
    __rt_lib_init_lc_ctype_2                 0x08000285   Thumb Code     0  libinit2.o(.ARM.Collect$$libinit$$00000012)
    __rt_lib_init_lc_ctype_1                 0x08000291   Thumb Code     0  libinit2.o(.ARM.Collect$$libinit$$00000013)
    __rt_lib_init_lc_monetary_1              0x08000291   Thumb Code     0  libinit2.o(.ARM.Collect$$libinit$$00000015)
    __rt_lib_init_lc_numeric_2               0x08000291   Thumb Code     0  libinit2.o(.ARM.Collect$$libinit$$00000016)
    __rt_lib_init_alloca_1                   0x0800029b   Thumb Code     0  libinit2.o(.ARM.Collect$$libinit$$0000002E)
    __rt_lib_init_argv_1                     0x0800029b   Thumb Code     0  libinit2.o(.ARM.Collect$$libinit$$0000002C)
    __rt_lib_init_atexit_1                   0x0800029b   Thumb Code     0  libinit2.o(.ARM.Collect$$libinit$$0000001B)
    __rt_lib_init_clock_1                    0x0800029b   Thumb Code     0  libinit2.o(.ARM.Collect$$libinit$$00000021)
    __rt_lib_init_cpp_1                      0x0800029b   Thumb Code     0  libinit2.o(.ARM.Collect$$libinit$$00000032)
    __rt_lib_init_exceptions_1               0x0800029b   Thumb Code     0  libinit2.o(.ARM.Collect$$libinit$$00000030)
    __rt_lib_init_fp_trap_1                  0x0800029b   Thumb Code     0  libinit2.o(.ARM.Collect$$libinit$$0000001F)
    __rt_lib_init_getenv_1                   0x0800029b   Thumb Code     0  libinit2.o(.ARM.Collect$$libinit$$00000023)
    __rt_lib_init_lc_numeric_1               0x0800029b   Thumb Code     0  libinit2.o(.ARM.Collect$$libinit$$00000017)
    __rt_lib_init_lc_time_1                  0x0800029b   Thumb Code     0  libinit2.o(.ARM.Collect$$libinit$$00000019)
    __rt_lib_init_return                     0x0800029b   Thumb Code     0  libinit2.o(.ARM.Collect$$libinit$$00000033)
    __rt_lib_init_signal_1                   0x0800029b   Thumb Code     0  libinit2.o(.ARM.Collect$$libinit$$0000001D)
    __rt_lib_init_stdio_1                    0x0800029b   Thumb Code     0  libinit2.o(.ARM.Collect$$libinit$$00000025)
    __rt_lib_shutdown                        0x0800029d   Thumb Code     0  libshutdown.o(.ARM.Collect$$libshutdown$$00000000)
    __rt_lib_shutdown_fp_trap_1              0x0800029f   Thumb Code     0  libshutdown2.o(.ARM.Collect$$libshutdown$$00000006)
    __rt_lib_shutdown_heap_1                 0x0800029f   Thumb Code     0  libshutdown2.o(.ARM.Collect$$libshutdown$$0000000E)
    __rt_lib_shutdown_return                 0x0800029f   Thumb Code     0  libshutdown2.o(.ARM.Collect$$libshutdown$$0000000F)
    __rt_lib_shutdown_signal_1               0x0800029f   Thumb Code     0  libshutdown2.o(.ARM.Collect$$libshutdown$$00000009)
    __rt_lib_shutdown_stdio_1                0x0800029f   Thumb Code     0  libshutdown2.o(.ARM.Collect$$libshutdown$$00000003)
    __rt_lib_shutdown_user_alloc_1           0x0800029f   Thumb Code     0  libshutdown2.o(.ARM.Collect$$libshutdown$$0000000B)
    __rt_entry                               0x080002a1   Thumb Code     0  __rtentry.o(.ARM.Collect$$rtentry$$00000000)
    __rt_entry_presh_1                       0x080002a1   Thumb Code     0  __rtentry2.o(.ARM.Collect$$rtentry$$00000002)
    __rt_entry_sh                            0x080002a1   Thumb Code     0  __rtentry4.o(.ARM.Collect$$rtentry$$00000004)
    __rt_entry_li                            0x080002a7   Thumb Code     0  __rtentry2.o(.ARM.Collect$$rtentry$$0000000A)
    __rt_entry_postsh_1                      0x080002a7   Thumb Code     0  __rtentry2.o(.ARM.Collect$$rtentry$$00000009)
    __rt_entry_main                          0x080002ab   Thumb Code     0  __rtentry2.o(.ARM.Collect$$rtentry$$0000000D)
    __rt_entry_postli_1                      0x080002ab   Thumb Code     0  __rtentry2.o(.ARM.Collect$$rtentry$$0000000C)
    __rt_exit                                0x080002b3   Thumb Code     0  rtexit.o(.ARM.Collect$$rtexit$$00000000)
    __rt_exit_ls                             0x080002b5   Thumb Code     0  rtexit2.o(.ARM.Collect$$rtexit$$00000003)
    __rt_exit_prels_1                        0x080002b5   Thumb Code     0  rtexit2.o(.ARM.Collect$$rtexit$$00000002)
    __rt_exit_exit                           0x080002b9   Thumb Code     0  rtexit2.o(.ARM.Collect$$rtexit$$00000004)
    Reset_Handler                            0x080002c1   Thumb Code     8  startup_stm32f10x_hd.o(.text)
    _maybe_terminate_alloc                   0x080002c1   Thumb Code     0  maybetermalloc1.o(.emb_text)
    ADC1_2_IRQHandler                        0x080002db   Thumb Code     0  startup_stm32f10x_hd.o(.text)
    ADC3_IRQHandler                          0x080002db   Thumb Code     0  startup_stm32f10x_hd.o(.text)
    CAN1_RX1_IRQHandler                      0x080002db   Thumb Code     0  startup_stm32f10x_hd.o(.text)
    CAN1_SCE_IRQHandler                      0x080002db   Thumb Code     0  startup_stm32f10x_hd.o(.text)
    DMA1_Channel1_IRQHandler                 0x080002db   Thumb Code     0  startup_stm32f10x_hd.o(.text)
    DMA1_Channel2_IRQHandler                 0x080002db   Thumb Code     0  startup_stm32f10x_hd.o(.text)
    DMA1_Channel3_IRQHandler                 0x080002db   Thumb Code     0  startup_stm32f10x_hd.o(.text)
    DMA1_Channel4_IRQHandler                 0x080002db   Thumb Code     0  startup_stm32f10x_hd.o(.text)
    DMA1_Channel5_IRQHandler                 0x080002db   Thumb Code     0  startup_stm32f10x_hd.o(.text)
    DMA1_Channel6_IRQHandler                 0x080002db   Thumb Code     0  startup_stm32f10x_hd.o(.text)
    DMA1_Channel7_IRQHandler                 0x080002db   Thumb Code     0  startup_stm32f10x_hd.o(.text)
    DMA2_Channel1_IRQHandler                 0x080002db   Thumb Code     0  startup_stm32f10x_hd.o(.text)
    DMA2_Channel2_IRQHandler                 0x080002db   Thumb Code     0  startup_stm32f10x_hd.o(.text)
    DMA2_Channel3_IRQHandler                 0x080002db   Thumb Code     0  startup_stm32f10x_hd.o(.text)
    DMA2_Channel4_5_IRQHandler               0x080002db   Thumb Code     0  startup_stm32f10x_hd.o(.text)
    EXTI0_IRQHandler                         0x080002db   Thumb Code     0  startup_stm32f10x_hd.o(.text)
    EXTI15_10_IRQHandler                     0x080002db   Thumb Code     0  startup_stm32f10x_hd.o(.text)
    EXTI1_IRQHandler                         0x080002db   Thumb Code     0  startup_stm32f10x_hd.o(.text)
    EXTI2_IRQHandler                         0x080002db   Thumb Code     0  startup_stm32f10x_hd.o(.text)
    EXTI3_IRQHandler                         0x080002db   Thumb Code     0  startup_stm32f10x_hd.o(.text)
    EXTI4_IRQHandler                         0x080002db   Thumb Code     0  startup_stm32f10x_hd.o(.text)
    EXTI9_5_IRQHandler                       0x080002db   Thumb Code     0  startup_stm32f10x_hd.o(.text)
    FLASH_IRQHandler                         0x080002db   Thumb Code     0  startup_stm32f10x_hd.o(.text)
    FSMC_IRQHandler                          0x080002db   Thumb Code     0  startup_stm32f10x_hd.o(.text)
    I2C1_ER_IRQHandler                       0x080002db   Thumb Code     0  startup_stm32f10x_hd.o(.text)
    I2C1_EV_IRQHandler                       0x080002db   Thumb Code     0  startup_stm32f10x_hd.o(.text)
    I2C2_ER_IRQHandler                       0x080002db   Thumb Code     0  startup_stm32f10x_hd.o(.text)
    I2C2_EV_IRQHandler                       0x080002db   Thumb Code     0  startup_stm32f10x_hd.o(.text)
    PVD_IRQHandler                           0x080002db   Thumb Code     0  startup_stm32f10x_hd.o(.text)
    RCC_IRQHandler                           0x080002db   Thumb Code     0  startup_stm32f10x_hd.o(.text)
    RTCAlarm_IRQHandler                      0x080002db   Thumb Code     0  startup_stm32f10x_hd.o(.text)
    RTC_IRQHandler                           0x080002db   Thumb Code     0  startup_stm32f10x_hd.o(.text)
    SDIO_IRQHandler                          0x080002db   Thumb Code     0  startup_stm32f10x_hd.o(.text)
    SPI1_IRQHandler                          0x080002db   Thumb Code     0  startup_stm32f10x_hd.o(.text)
    SPI2_IRQHandler                          0x080002db   Thumb Code     0  startup_stm32f10x_hd.o(.text)
    SPI3_IRQHandler                          0x080002db   Thumb Code     0  startup_stm32f10x_hd.o(.text)
    TAMPER_IRQHandler                        0x080002db   Thumb Code     0  startup_stm32f10x_hd.o(.text)
    TIM1_BRK_IRQHandler                      0x080002db   Thumb Code     0  startup_stm32f10x_hd.o(.text)
    TIM1_CC_IRQHandler                       0x080002db   Thumb Code     0  startup_stm32f10x_hd.o(.text)
    TIM1_TRG_COM_IRQHandler                  0x080002db   Thumb Code     0  startup_stm32f10x_hd.o(.text)
    TIM1_UP_IRQHandler                       0x080002db   Thumb Code     0  startup_stm32f10x_hd.o(.text)
    TIM4_IRQHandler                          0x080002db   Thumb Code     0  startup_stm32f10x_hd.o(.text)
    TIM5_IRQHandler                          0x080002db   Thumb Code     0  startup_stm32f10x_hd.o(.text)
    TIM6_IRQHandler                          0x080002db   Thumb Code     0  startup_stm32f10x_hd.o(.text)
    TIM8_BRK_IRQHandler                      0x080002db   Thumb Code     0  startup_stm32f10x_hd.o(.text)
    TIM8_CC_IRQHandler                       0x080002db   Thumb Code     0  startup_stm32f10x_hd.o(.text)
    TIM8_TRG_COM_IRQHandler                  0x080002db   Thumb Code     0  startup_stm32f10x_hd.o(.text)
    TIM8_UP_IRQHandler                       0x080002db   Thumb Code     0  startup_stm32f10x_hd.o(.text)
    UART5_IRQHandler                         0x080002db   Thumb Code     0  startup_stm32f10x_hd.o(.text)
    USART3_IRQHandler                        0x080002db   Thumb Code     0  startup_stm32f10x_hd.o(.text)
    USBWakeUp_IRQHandler                     0x080002db   Thumb Code     0  startup_stm32f10x_hd.o(.text)
    USB_HP_CAN1_TX_IRQHandler                0x080002db   Thumb Code     0  startup_stm32f10x_hd.o(.text)
    USB_LP_CAN1_RX0_IRQHandler               0x080002db   Thumb Code     0  startup_stm32f10x_hd.o(.text)
    WWDG_IRQHandler                          0x080002db   Thumb Code     0  startup_stm32f10x_hd.o(.text)
    __user_initial_stackheap                 0x080002dd   Thumb Code     0  startup_stm32f10x_hd.o(.text)
    malloc                                   0x08000301   Thumb Code    94  h1_alloc.o(.text)
    free                                     0x0800035f   Thumb Code    78  h1_free.o(.text)
    tolower                                  0x080003ad   Thumb Code    26  tolower.o(.text)
    __c89vsnprintf                           0x080003c9   Thumb Code    48  c89vsnprintf.o(.text)
    __2sprintf                               0x080003fd   Thumb Code    38  __2sprintf.o(.text)
    _printf_pre_padding                      0x08000429   Thumb Code    44  _printf_pad.o(.text)
    _printf_post_padding                     0x08000455   Thumb Code    34  _printf_pad.o(.text)
    _printf_str                              0x08000477   Thumb Code    82  _printf_str.o(.text)
    _printf_int_dec                          0x080004c9   Thumb Code   104  _printf_dec.o(.text)
    _printf_longlong_hex                     0x08000541   Thumb Code    86  _printf_hex_int_ll_ptr.o(.text)
    _printf_int_hex                          0x08000597   Thumb Code    28  _printf_hex_int_ll_ptr.o(.text)
    _printf_ll_hex                           0x080005b3   Thumb Code    12  _printf_hex_int_ll_ptr.o(.text)
    _printf_hex_ptr                          0x080005bf   Thumb Code    18  _printf_hex_int_ll_ptr.o(.text)
    __printf                                 0x080005d5   Thumb Code   388  __printf_flags_ss_wp.o(.text)
    atoi                                     0x0800075d   Thumb Code    26  atoi.o(.text)
    strchr                                   0x08000777   Thumb Code    20  strchr.o(.text)
    strncat                                  0x0800078b   Thumb Code    36  strncat.o(.text)
    strstr                                   0x080007af   Thumb Code    36  strstr.o(.text)
    strlen                                   0x080007d3   Thumb Code    62  strlen.o(.text)
    strncmp                                  0x08000811   Thumb Code   150  strncmp.o(.text)
    __aeabi_memcpy                           0x080008a7   Thumb Code     0  rt_memcpy_v6.o(.text)
    __rt_memcpy                              0x080008a7   Thumb Code   138  rt_memcpy_v6.o(.text)
    _memcpy_lastbytes                        0x0800090d   Thumb Code     0  rt_memcpy_v6.o(.text)
    __aeabi_memcpy4                          0x08000931   Thumb Code     0  rt_memcpy_w.o(.text)
    __aeabi_memcpy8                          0x08000931   Thumb Code     0  rt_memcpy_w.o(.text)
    __rt_memcpy_w                            0x08000931   Thumb Code   100  rt_memcpy_w.o(.text)
    _memcpy_lastbytes_aligned                0x08000979   Thumb Code     0  rt_memcpy_w.o(.text)
    __aeabi_memclr                           0x08000995   Thumb Code     0  rt_memclr.o(.text)
    __rt_memclr                              0x08000995   Thumb Code    68  rt_memclr.o(.text)
    _memset                                  0x08000999   Thumb Code     0  rt_memclr.o(.text)
    __aeabi_memclr4                          0x080009d9   Thumb Code     0  rt_memclr_w.o(.text)
    __aeabi_memclr8                          0x080009d9   Thumb Code     0  rt_memclr_w.o(.text)
    __rt_memclr_w                            0x080009d9   Thumb Code    78  rt_memclr_w.o(.text)
    _memset_w                                0x080009dd   Thumb Code     0  rt_memclr_w.o(.text)
    __use_two_region_memory                  0x08000a27   Thumb Code     2  heapauxi.o(.text)
    __rt_heap_escrow                         0x08000a29   Thumb Code     2  heapauxi.o(.text)
    __rt_heap_expand                         0x08000a2b   Thumb Code     2  heapauxi.o(.text)
    __rt_ctype_table                         0x08000a2d   Thumb Code    16  rt_ctype_table.o(.text)
    __rt_heap_descriptor                     0x08000a3d   Thumb Code     8  rt_heap_descriptor_intlibspace.o(.text)
    __aeabi_errno_addr                       0x08000a45   Thumb Code     8  rt_errno_addr_intlibspace.o(.text)
    __errno$intlibspace                      0x08000a45   Thumb Code     0  rt_errno_addr_intlibspace.o(.text)
    __rt_errno_addr$intlibspace              0x08000a45   Thumb Code     0  rt_errno_addr_intlibspace.o(.text)
    __use_no_heap                            0x08000a4d   Thumb Code     2  hguard.o(.text)
    __heap$guard                             0x08000a4f   Thumb Code     2  hguard.o(.text)
    _terminate_user_alloc                    0x08000a51   Thumb Code     2  init_alloc.o(.text)
    _init_user_alloc                         0x08000a53   Thumb Code     2  init_alloc.o(.text)
    __Heap_Full                              0x08000a55   Thumb Code    34  init_alloc.o(.text)
    __Heap_Broken                            0x08000a77   Thumb Code     6  init_alloc.o(.text)
    _init_alloc                              0x08000a7d   Thumb Code    94  init_alloc.o(.text)
    __Heap_Initialize                        0x08000adb   Thumb Code    10  h1_init.o(.text)
    __Heap_DescSize                          0x08000ae5   Thumb Code     4  h1_init.o(.text)
    __read_errno                             0x08000ae9   Thumb Code    10  _rserrno.o(.text)
    __set_errno                              0x08000af3   Thumb Code    12  _rserrno.o(.text)
    _printf_truncate_signed                  0x08000aff   Thumb Code    18  _printf_truncate.o(.text)
    _printf_truncate_unsigned                0x08000b11   Thumb Code    18  _printf_truncate.o(.text)
    _printf_int_common                       0x08000b23   Thumb Code   178  _printf_intcommon.o(.text)
    _printf_charcount                        0x08000bd5   Thumb Code    40  _printf_charcount.o(.text)
    __lib_sel_fp_printf                      0x08000bfd   Thumb Code     2  _printf_fp_dec.o(.text)
    _printf_fp_dec_real                      0x08000dab   Thumb Code   620  _printf_fp_dec.o(.text)
    _printf_char_common                      0x08001023   Thumb Code    32  _printf_char_common.o(.text)
    _sputc                                   0x08001049   Thumb Code    10  _sputc.o(.text)
    _snputc                                  0x08001053   Thumb Code    16  _snputc.o(.text)
    _printf_cs_common                        0x08001063   Thumb Code    20  _printf_char.o(.text)
    _printf_char                             0x08001077   Thumb Code    16  _printf_char.o(.text)
    _printf_string                           0x08001087   Thumb Code     8  _printf_char.o(.text)
    _printf_wctomb                           0x08001091   Thumb Code   182  _printf_wctomb.o(.text)
    _printf_longlong_dec                     0x0800114d   Thumb Code   108  _printf_longlong_dec.o(.text)
    _printf_longlong_oct                     0x080011c9   Thumb Code    68  _printf_oct_int_ll.o(.text)
    _printf_int_oct                          0x0800120d   Thumb Code    24  _printf_oct_int_ll.o(.text)
    _printf_ll_oct                           0x08001225   Thumb Code    12  _printf_oct_int_ll.o(.text)
    strtol                                   0x08001239   Thumb Code   112  strtol.o(.text)
    __user_libspace                          0x080012a9   Thumb Code     8  libspace.o(.text)
    __user_perproc_libspace                  0x080012a9   Thumb Code     0  libspace.o(.text)
    __user_perthread_libspace                0x080012a9   Thumb Code     0  libspace.o(.text)
    __rt_locale                              0x080012b1   Thumb Code     8  rt_locale_intlibspace.o(.text)
    __Heap_ProvideMemory                     0x080012b9   Thumb Code    52  h1_extend.o(.text)
    _ll_udiv10                               0x080012ed   Thumb Code   138  lludiv10.o(.text)
    _printf_fp_infnan                        0x08001379   Thumb Code   112  _printf_fp_infnan.o(.text)
    _printf_lcs_common                       0x080013f9   Thumb Code    20  _printf_wchar.o(.text)
    _printf_wchar                            0x0800140d   Thumb Code    16  _printf_wchar.o(.text)
    _printf_wstring                          0x0800141d   Thumb Code     8  _printf_wchar.o(.text)
    _strtoul                                 0x08001425   Thumb Code   158  _strtoul.o(.text)
    _btod_etento                             0x080014c5   Thumb Code   216  bigflt0.o(.text)
    _wcrtomb                                 0x080015a1   Thumb Code    64  _wcrtomb.o(.text)
    __rt_SIGRTMEM                            0x080015e1   Thumb Code    14  defsig_rtmem_outer.o(.text)
    __I$use$semihosting                      0x080015ef   Thumb Code     0  use_no_semi.o(.text)
    __use_no_semihosting_swi                 0x080015ef   Thumb Code     2  use_no_semi.o(.text)
    __semihosting_library_function           0x080015f1   Thumb Code     0  indicate_semi.o(.text)
    __user_setup_stackheap                   0x080015f1   Thumb Code    74  sys_stackheap_outer.o(.text)
    _chval                                   0x0800163b   Thumb Code    28  _chval.o(.text)
    exit                                     0x08001657   Thumb Code    12  exit.o(.text)
    __sig_exit                               0x08001663   Thumb Code    10  defsig_exit.o(.text)
    __rt_SIGRTMEM_inner                      0x0800166d   Thumb Code    22  defsig_rtmem_inner.o(.text)
    strcmp                                   0x080016bd   Thumb Code   128  strcmpv7m.o(.text)
    _sys_exit                                0x0800173d   Thumb Code     8  sys_exit.o(.text)
    __default_signal_display                 0x08001749   Thumb Code    50  defsig_general.o(.text)
    _ttywrch                                 0x0800177b   Thumb Code    14  sys_wrch.o(.text)
    _btod_d2e                                0x08001789   Thumb Code    62  btod.o(CL$$btod_d2e)
    _d2e_denorm_low                          0x080017c7   Thumb Code    70  btod.o(CL$$btod_d2e_denorm_low)
    _d2e_norm_op1                            0x0800180d   Thumb Code    96  btod.o(CL$$btod_d2e_norm_op1)
    __btod_div_common                        0x0800186d   Thumb Code   696  btod.o(CL$$btod_div_common)
    _e2e                                     0x08001ba5   Thumb Code   198  btod.o(CL$$btod_e2e)
    _btod_ediv                               0x08001c6b   Thumb Code    40  btod.o(CL$$btod_ediv)
    _btod_emul                               0x08001c93   Thumb Code    40  btod.o(CL$$btod_emul)
    __btod_mult_common                       0x08001cbb   Thumb Code   580  btod.o(CL$$btod_mult_common)
    Add_FR                                   0x08001f01   Thumb Code   962  as608.o(i.Add_FR)
    BusFault_Handler                         0x08002361   Thumb Code     4  stm32f10x_it.o(i.BusFault_Handler)
    DebugMon_Handler                         0x08002365   Thumb Code     2  stm32f10x_it.o(i.DebugMon_Handler)
    ESP8266_Clear                            0x08002369   Thumb Code    18  esp8266.o(i.ESP8266_Clear)
    ESP8266_GetIPD                           0x08002385   Thumb Code    68  esp8266.o(i.ESP8266_GetIPD)
    ESP8266_Init                             0x080023d5   Thumb Code   214  esp8266.o(i.ESP8266_Init)
    ESP8266_SendCmd                          0x080025c1   Thumb Code    76  esp8266.o(i.ESP8266_SendCmd)
    ESP8266_SendData                         0x08002615   Thumb Code    46  esp8266.o(i.ESP8266_SendData)
    ESP8266_WaitRecive                       0x0800265d   Thumb Code    42  esp8266.o(i.ESP8266_WaitRecive)
    EnsureMessage                            0x08002691   Thumb Code   140  as608.o(i.EnsureMessage)
    GPIO_Init                                0x080028e9   Thumb Code   278  stm32f10x_gpio.o(i.GPIO_Init)
    GPIO_ReadInputDataBit                    0x080029ff   Thumb Code    18  stm32f10x_gpio.o(i.GPIO_ReadInputDataBit)
    GPIO_ResetBits                           0x08002a11   Thumb Code     4  stm32f10x_gpio.o(i.GPIO_ResetBits)
    GPIO_SetBits                             0x08002a15   Thumb Code     4  stm32f10x_gpio.o(i.GPIO_SetBits)
    HardFault_Handler                        0x08002a19   Thumb Code     4  stm32f10x_it.o(i.HardFault_Handler)
    Hardware_Init                            0x08002a1d   Thumb Code    56  main.o(i.Hardware_Init)
    IIC_Ack                                  0x08002a55   Thumb Code    66  myiic.o(i.IIC_Ack)
    IIC_Init                                 0x08002aa5   Thumb Code    46  myiic.o(i.IIC_Init)
    IIC_NAck                                 0x08002ad9   Thumb Code    66  myiic.o(i.IIC_NAck)
    IIC_Read_Byte                            0x08002b29   Thumb Code    98  myiic.o(i.IIC_Read_Byte)
    IIC_Send_Byte                            0x08002b99   Thumb Code    90  myiic.o(i.IIC_Send_Byte)
    IIC_Start                                0x08002c01   Thumb Code    64  myiic.o(i.IIC_Start)
    IIC_Stop                                 0x08002c4d   Thumb Code    62  myiic.o(i.IIC_Stop)
    IIC_Wait_Ack                             0x08002c99   Thumb Code    86  myiic.o(i.IIC_Wait_Ack)
    KEY_Init                                 0x08002d85   Thumb Code    32  key.o(i.KEY_Init)
    KEY_Scan                                 0x08002da9   Thumb Code   146  key.o(i.KEY_Scan)
    MQTT_DeleteBuffer                        0x08002e45   Thumb Code    28  mqttkit.o(i.MQTT_DeleteBuffer)
    MQTT_DumpLength                          0x08002e61   Thumb Code    46  mqttkit.o(i.MQTT_DumpLength)
    MQTT_NewBuffer                           0x08002e8f   Thumb Code    88  mqttkit.o(i.MQTT_NewBuffer)
    MQTT_PacketCmdResp                       0x08002ee9   Thumb Code   132  mqttkit.o(i.MQTT_PacketCmdResp)
    MQTT_PacketConnect                       0x08002f75   Thumb Code   666  mqttkit.o(i.MQTT_PacketConnect)
    MQTT_PacketPublish                       0x08003215   Thumb Code   440  mqttkit.o(i.MQTT_PacketPublish)
    MQTT_PacketPublishAck                    0x080033cd   Thumb Code    72  mqttkit.o(i.MQTT_PacketPublishAck)
    MQTT_PacketPublishComp                   0x08003415   Thumb Code    72  mqttkit.o(i.MQTT_PacketPublishComp)
    MQTT_PacketPublishRec                    0x0800345d   Thumb Code    72  mqttkit.o(i.MQTT_PacketPublishRec)
    MQTT_PacketPublishRel                    0x080034a5   Thumb Code    72  mqttkit.o(i.MQTT_PacketPublishRel)
    MQTT_PacketSubscribe                     0x080034ed   Thumb Code   254  mqttkit.o(i.MQTT_PacketSubscribe)
    MQTT_ReadLength                          0x080035eb   Thumb Code    70  mqttkit.o(i.MQTT_ReadLength)
    MQTT_UnPacketCmd                         0x08003631   Thumb Code   140  mqttkit.o(i.MQTT_UnPacketCmd)
    MQTT_UnPacketConnectAck                  0x080036bd   Thumb Code    30  mqttkit.o(i.MQTT_UnPacketConnectAck)
    MQTT_UnPacketPublish                     0x080036dd   Thumb Code   438  mqttkit.o(i.MQTT_UnPacketPublish)
    MQTT_UnPacketPublishAck                  0x0800389d   Thumb Code    30  mqttkit.o(i.MQTT_UnPacketPublishAck)
    MQTT_UnPacketPublishComp                 0x080038bb   Thumb Code    30  mqttkit.o(i.MQTT_UnPacketPublishComp)
    MQTT_UnPacketPublishRec                  0x080038d9   Thumb Code    30  mqttkit.o(i.MQTT_UnPacketPublishRec)
    MQTT_UnPacketPublishRel                  0x080038f7   Thumb Code    36  mqttkit.o(i.MQTT_UnPacketPublishRel)
    MQTT_UnPacketRecv                        0x0800391d   Thumb Code   106  mqttkit.o(i.MQTT_UnPacketRecv)
    MQTT_UnPacketSubscribe                   0x08003991   Thumb Code    52  mqttkit.o(i.MQTT_UnPacketSubscribe)
    MQTT_UnPacketUnSubscribe                 0x080039c5   Thumb Code    18  mqttkit.o(i.MQTT_UnPacketUnSubscribe)
    MemManage_Handler                        0x080039f5   Thumb Code     4  stm32f10x_it.o(i.MemManage_Handler)
    NMI_Handler                              0x080039f9   Thumb Code     2  stm32f10x_it.o(i.NMI_Handler)
    NVIC_Configuration                       0x080039fb   Thumb Code    12  sys.o(i.NVIC_Configuration)
    NVIC_Init                                0x08003a09   Thumb Code   100  misc.o(i.NVIC_Init)
    NVIC_PriorityGroupConfig                 0x08003a79   Thumb Code    10  misc.o(i.NVIC_PriorityGroupConfig)
    OLED_Clear                               0x08003a8d   Thumb Code    42  oled.o(i.OLED_Clear)
    OLED_ClearPoint                          0x08003abd   Thumb Code    90  oled.o(i.OLED_ClearPoint)
    OLED_DrawPoint                           0x08003b1d   Thumb Code    54  oled.o(i.OLED_DrawPoint)
    OLED_Init                                0x08003b59   Thumb Code   378  oled.o(i.OLED_Init)
    OLED_Pow                                 0x08003ce1   Thumb Code    22  oled.o(i.OLED_Pow)
    OLED_Refresh                             0x08003cf9   Thumb Code    70  oled.o(i.OLED_Refresh)
    OLED_ShowChar                            0x08003d45   Thumb Code   240  oled.o(i.OLED_ShowChar)
    OLED_ShowChinese                         0x08003e41   Thumb Code   248  oled.o(i.OLED_ShowChinese)
    OLED_ShowNum                             0x08003f49   Thumb Code   116  oled.o(i.OLED_ShowNum)
    OLED_Show_Await_Face                     0x08003fbd   Thumb Code   270  oled.o(i.OLED_Show_Await_Face)
    OLED_WR_Byte                             0x080040d1   Thumb Code   118  oled.o(i.OLED_WR_Byte)
    OneNet_DevLink                           0x08004151   Thumb Code   212  onenet.o(i.OneNet_DevLink)
    OneNet_Publish                           0x08004371   Thumb Code    86  onenet.o(i.OneNet_Publish)
    OneNet_RevPro                            0x080043ed   Thumb Code   786  onenet.o(i.OneNet_RevPro)
    OneNet_Subscribe                         0x08004975   Thumb Code    80  onenet.o(i.OneNet_Subscribe)
    PEC_Calculation                          0x080049e1   Thumb Code   186  iic2.o(i.PEC_Calculation)
    PS_GenChar                               0x08004a9b   Thumb Code    70  as608.o(i.PS_GenChar)
    PS_GetImage                              0x08004ae1   Thumb Code    58  as608.o(i.PS_GetImage)
    PS_HighSpeedSearch                       0x08004b1b   Thumb Code   144  as608.o(i.PS_HighSpeedSearch)
    PS_Match                                 0x08004bab   Thumb Code    58  as608.o(i.PS_Match)
    PS_RegModel                              0x08004be5   Thumb Code    58  as608.o(i.PS_RegModel)
    PS_StoreChar                             0x08004c1f   Thumb Code    96  as608.o(i.PS_StoreChar)
    PendSV_Handler                           0x08004c7f   Thumb Code     2  stm32f10x_it.o(i.PendSV_Handler)
    RCC_APB1PeriphClockCmd                   0x08004c81   Thumb Code    26  stm32f10x_rcc.o(i.RCC_APB1PeriphClockCmd)
    RCC_APB2PeriphClockCmd                   0x08004ca1   Thumb Code    26  stm32f10x_rcc.o(i.RCC_APB2PeriphClockCmd)
    RCC_GetClocksFreq                        0x08004cc1   Thumb Code   192  stm32f10x_rcc.o(i.RCC_GetClocksFreq)
    SMBus_Delay                              0x08004d95   Thumb Code    26  iic2.o(i.SMBus_Delay)
    SMBus_Init                               0x08004db1   Thumb Code    54  iic2.o(i.SMBus_Init)
    SMBus_ReadMemory                         0x08004ded   Thumb Code   166  iic2.o(i.SMBus_ReadMemory)
    SMBus_ReadTemp                           0x08004e95   Thumb Code    54  iic2.o(i.SMBus_ReadTemp)
    SMBus_ReceiveBit                         0x08004ed9   Thumb Code    68  iic2.o(i.SMBus_ReceiveBit)
    SMBus_ReceiveByte                        0x08004f21   Thumb Code    50  iic2.o(i.SMBus_ReceiveByte)
    SMBus_SendBit                            0x08004f55   Thumb Code    64  iic2.o(i.SMBus_SendBit)
    SMBus_SendByte                           0x08004f99   Thumb Code    48  iic2.o(i.SMBus_SendByte)
    SMBus_StartBit                           0x08004fc9   Thumb Code    64  iic2.o(i.SMBus_StartBit)
    SMBus_StopBit                            0x0800500d   Thumb Code    58  iic2.o(i.SMBus_StopBit)
    SVC_Handler                              0x0800504d   Thumb Code     2  stm32f10x_it.o(i.SVC_Handler)
    ShowErrMessage                           0x080051bd   Thumb Code    22  as608.o(i.ShowErrMessage)
    SysTick_CLKSourceConfig                  0x080051d9   Thumb Code    40  misc.o(i.SysTick_CLKSourceConfig)
    SysTick_Handler                          0x08005201   Thumb Code     2  stm32f10x_it.o(i.SysTick_Handler)
    SystemInit                               0x08005205   Thumb Code    78  system_stm32f10x.o(i.SystemInit)
    TIM2_IRQHandler                          0x08005265   Thumb Code    22  timer.o(i.TIM2_IRQHandler)
    TIM3_IRQHandler                          0x0800527d   Thumb Code    22  timer.o(i.TIM3_IRQHandler)
    TIM7_IRQHandler                          0x08005299   Thumb Code    42  timer.o(i.TIM7_IRQHandler)
    TIM7_Int_Init                            0x080052cd   Thumb Code    90  timer.o(i.TIM7_Int_Init)
    TIM_ClearITPendingBit                    0x0800532d   Thumb Code     6  stm32f10x_tim.o(i.TIM_ClearITPendingBit)
    TIM_Cmd                                  0x08005333   Thumb Code    24  stm32f10x_tim.o(i.TIM_Cmd)
    TIM_GetITStatus                          0x0800534b   Thumb Code    34  stm32f10x_tim.o(i.TIM_GetITStatus)
    TIM_ITConfig                             0x0800536d   Thumb Code    18  stm32f10x_tim.o(i.TIM_ITConfig)
    TIM_SetCounter                           0x0800537f   Thumb Code     4  stm32f10x_tim.o(i.TIM_SetCounter)
    TIM_TimeBaseInit                         0x08005385   Thumb Code   122  stm32f10x_tim.o(i.TIM_TimeBaseInit)
    UART4_IRQHandler                         0x08005429   Thumb Code    94  usart.o(i.UART4_IRQHandler)
    USART1_IRQHandler                        0x08005499   Thumb Code    24  usart.o(i.USART1_IRQHandler)
    USART2_IRQHandler                        0x080054b5   Thumb Code    62  esp8266.o(i.USART2_IRQHandler)
    USART_ClearFlag                          0x08005501   Thumb Code    18  stm32f10x_usart.o(i.USART_ClearFlag)
    USART_Cmd                                0x08005513   Thumb Code    24  stm32f10x_usart.o(i.USART_Cmd)
    USART_GetFlagStatus                      0x0800552b   Thumb Code    26  stm32f10x_usart.o(i.USART_GetFlagStatus)
    USART_GetITStatus                        0x08005545   Thumb Code    84  stm32f10x_usart.o(i.USART_GetITStatus)
    USART_ITConfig                           0x08005599   Thumb Code    74  stm32f10x_usart.o(i.USART_ITConfig)
    USART_Init                               0x080055e5   Thumb Code   210  stm32f10x_usart.o(i.USART_Init)
    USART_ReceiveData                        0x080056bd   Thumb Code    10  stm32f10x_usart.o(i.USART_ReceiveData)
    USART_SendData                           0x080056c7   Thumb Code     8  stm32f10x_usart.o(i.USART_SendData)
    UsageFault_Handler                       0x080056cf   Thumb Code     4  stm32f10x_it.o(i.UsageFault_Handler)
    Usart1_Init                              0x080056d5   Thumb Code   166  usart.o(i.Usart1_Init)
    Usart2_Init                              0x08005785   Thumb Code   164  usart.o(i.Usart2_Init)
    Usart4_Init                              0x08005831   Thumb Code   190  usart.o(i.Usart4_Init)
    UsartPrintf                              0x08005901   Thumb Code    72  usart.o(i.UsartPrintf)
    Usart_SendString                         0x08005949   Thumb Code    50  usart.o(i.Usart_SendString)
    __ARM_fpclassify                         0x0800597b   Thumb Code    40  fpclassify.o(i.__ARM_fpclassify)
    __kernel_poly                            0x080059a3   Thumb Code   170  poly.o(i.__kernel_poly)
    __mathlib_dbl_divzero                    0x08005a4d   Thumb Code    12  dunder.o(i.__mathlib_dbl_divzero)
    __mathlib_dbl_infnan2                    0x08005a5d   Thumb Code     4  dunder.o(i.__mathlib_dbl_infnan2)
    __mathlib_dbl_invalid                    0x08005a61   Thumb Code    12  dunder.o(i.__mathlib_dbl_invalid)
    __mathlib_dbl_overflow                   0x08005a6d   Thumb Code    14  dunder.o(i.__mathlib_dbl_overflow)
    __mathlib_dbl_underflow                  0x08005a7d   Thumb Code    10  dunder.o(i.__mathlib_dbl_underflow)
    _is_digit                                0x08005a8d   Thumb Code    14  __printf_wp.o(i._is_digit)
    cJSON_Delete                             0x08005a9d   Thumb Code    82  cjson.o(i.cJSON_Delete)
    cJSON_GetErrorPtr                        0x08005af5   Thumb Code     6  cjson.o(i.cJSON_GetErrorPtr)
    cJSON_GetObjectItem                      0x08005b01   Thumb Code    30  cjson.o(i.cJSON_GetObjectItem)
    cJSON_Parse                              0x08005b41   Thumb Code    16  cjson.o(i.cJSON_Parse)
    cJSON_ParseWithOpts                      0x08005b51   Thumb Code    96  cjson.o(i.cJSON_ParseWithOpts)
    delay_init                               0x08005c01   Thumb Code    50  delay.o(i.delay_init)
    delay_ms                                 0x08005c45   Thumb Code    72  delay.o(i.delay_ms)
    delay_us                                 0x08005c91   Thumb Code    72  delay.o(i.delay_us)
    get_heartblood                           0x08005cdd   Thumb Code   974  main.o(i.get_heartblood)
    get_temperature                          0x08006185   Thumb Code   496  main.o(i.get_temperature)
    main                                     0x080063ed   Thumb Code   164  main.o(i.main)
    max30102_Bus_Read                        0x080064cd   Thumb Code    82  max30102.o(i.max30102_Bus_Read)
    max30102_Bus_Write                       0x0800651f   Thumb Code    68  max30102.o(i.max30102_Bus_Write)
    max30102_FIFO_ReadBytes                  0x08006563   Thumb Code   128  max30102.o(i.max30102_FIFO_ReadBytes)
    max30102_init                            0x080065e5   Thumb Code   130  max30102.o(i.max30102_init)
    max30102_reset                           0x0800666d   Thumb Code    20  max30102.o(i.max30102_reset)
    maxim_find_peaks                         0x08006681   Thumb Code    66  algorithm.o(i.maxim_find_peaks)
    maxim_heart_rate_and_oxygen_saturation   0x080066c5   Thumb Code  1272  algorithm.o(i.maxim_heart_rate_and_oxygen_saturation)
    maxim_peaks_above_min_height             0x08006bc5   Thumb Code   122  algorithm.o(i.maxim_peaks_above_min_height)
    maxim_remove_close_peaks                 0x08006c3f   Thumb Code   114  algorithm.o(i.maxim_remove_close_peaks)
    maxim_sort_ascend                        0x08006cb1   Thumb Code    54  algorithm.o(i.maxim_sort_ascend)
    maxim_sort_indices_descend               0x08006ce7   Thumb Code    64  algorithm.o(i.maxim_sort_indices_descend)
    pow                                      0x08007441   Thumb Code  2478  pow.o(i.pow)
    press_FR                                 0x08007df9   Thumb Code   536  as608.o(i.press_FR)
    sqrt                                     0x08008063   Thumb Code    76  sqrt.o(i.sqrt)
    _get_lc_ctype                            0x080080b1   Thumb Code    44  lc_ctype_c.o(locale$$code)
    _get_lc_numeric                          0x080080dd   Thumb Code    44  lc_numeric_c.o(locale$$code)
    __aeabi_d2f                              0x08008109   Thumb Code     0  d2f.o(x$fpl$d2f)
    _d2f                                     0x08008109   Thumb Code    98  d2f.o(x$fpl$d2f)
    __aeabi_dadd                             0x0800816d   Thumb Code     0  daddsub_clz.o(x$fpl$dadd)
    _dadd                                    0x0800816d   Thumb Code   332  daddsub_clz.o(x$fpl$dadd)
    __fpl_dcheck_NaN1                        0x080082bd   Thumb Code    10  dcheck1.o(x$fpl$dcheck1)
    __fpl_dcmp_Inf                           0x080082cd   Thumb Code    24  dcmpi.o(x$fpl$dcmpinf)
    __aeabi_ddiv                             0x080082e5   Thumb Code     0  ddiv.o(x$fpl$ddiv)
    _ddiv                                    0x080082e5   Thumb Code   552  ddiv.o(x$fpl$ddiv)
    __aeabi_d2iz                             0x08008595   Thumb Code     0  dfix.o(x$fpl$dfix)
    _dfix                                    0x08008595   Thumb Code    94  dfix.o(x$fpl$dfix)
    __aeabi_i2d                              0x080085f3   Thumb Code     0  dflt_clz.o(x$fpl$dflt)
    _dflt                                    0x080085f3   Thumb Code    46  dflt_clz.o(x$fpl$dflt)
    __aeabi_ui2d                             0x08008621   Thumb Code     0  dflt_clz.o(x$fpl$dfltu)
    _dfltu                                   0x08008621   Thumb Code    38  dflt_clz.o(x$fpl$dfltu)
    __aeabi_cdcmple                          0x08008649   Thumb Code     0  dleqf.o(x$fpl$dleqf)
    _dcmple                                  0x08008649   Thumb Code   120  dleqf.o(x$fpl$dleqf)
    __fpl_dcmple_InfNaN                      0x080086ab   Thumb Code     0  dleqf.o(x$fpl$dleqf)
    __aeabi_dmul                             0x080086c1   Thumb Code     0  dmul.o(x$fpl$dmul)
    _dmul                                    0x080086c1   Thumb Code   332  dmul.o(x$fpl$dmul)
    __fpl_dnaninf                            0x08008815   Thumb Code   156  dnaninf.o(x$fpl$dnaninf)
    __fpl_dretinf                            0x080088b1   Thumb Code    12  dretinf.o(x$fpl$dretinf)
    __aeabi_cdrcmple                         0x080088bd   Thumb Code     0  drleqf.o(x$fpl$drleqf)
    _drcmple                                 0x080088bd   Thumb Code   108  drleqf.o(x$fpl$drleqf)
    __aeabi_drsub                            0x08008929   Thumb Code     0  daddsub_clz.o(x$fpl$drsb)
    _drsb                                    0x08008929   Thumb Code    22  daddsub_clz.o(x$fpl$drsb)
    _dsqrt                                   0x08008941   Thumb Code   456  dsqrt_noumaal.o(x$fpl$dsqrt)
    __aeabi_dsub                             0x08008b0d   Thumb Code     0  daddsub_clz.o(x$fpl$dsub)
    _dsub                                    0x08008b0d   Thumb Code   464  daddsub_clz.o(x$fpl$dsub)
    __aeabi_f2d                              0x08008ce1   Thumb Code     0  f2d.o(x$fpl$f2d)
    _f2d                                     0x08008ce1   Thumb Code    86  f2d.o(x$fpl$f2d)
    __aeabi_f2iz                             0x08008d39   Thumb Code     0  ffix.o(x$fpl$ffix)
    _ffix                                    0x08008d39   Thumb Code    54  ffix.o(x$fpl$ffix)
    __aeabi_fmul                             0x08008d71   Thumb Code     0  fmul.o(x$fpl$fmul)
    _fmul                                    0x08008d71   Thumb Code   258  fmul.o(x$fpl$fmul)
    __fpl_fnaninf                            0x08008e73   Thumb Code   140  fnaninf.o(x$fpl$fnaninf)
    __fpl_fretinf                            0x08008eff   Thumb Code    10  fretinf.o(x$fpl$fretinf)
    _printf_fp_dec                           0x08008f09   Thumb Code     4  printf1.o(x$fpl$printf1)
    __fpl_return_NaN                         0x08008f0d   Thumb Code   100  retnan.o(x$fpl$retnan)
    __ARM_scalbn                             0x08008f71   Thumb Code    92  scalbn.o(x$fpl$scalbn)
    __fpl_cmpreturn                          0x08008fcd   Thumb Code    48  trapv.o(x$fpl$trapveneer)
    __I$use$fp                               0x08008ffc   Number         0  usenofp.o(x$fpl$usenofp)
    asc2_1206                                0x08008ffc   Data        1140  oled.o(.constdata)
    asc2_1608                                0x08009470   Data        1520  oled.o(.constdata)
    asc2_2412                                0x08009a60   Data        3420  oled.o(.constdata)
    auw_hamm                                 0x0800a7bc   Data          62  algorithm.o(.constdata)
    uch_spo2_table                           0x0800a7fa   Data         184  algorithm.o(.constdata)
    __mathlib_zero                           0x0800a988   Data           8  qnan.o(.constdata)
    Region$$Table$$Base                      0x0800aa40   Number         0  anon$$obj.o(Region$$Table)
    Region$$Table$$Limit                     0x0800aa60   Number         0  anon$$obj.o(Region$$Table)
    __ctype                                  0x0800aa6d   Data           0  lc_ctype_c.o(locale$$data)
    deviceid                                 0x20000000   Data           2  main.o(.data)
    user_flag                                0x20000004   Data           4  main.o(.data)
    Topics                                   0x20000008   Data           8  main.o(.data)
    n_ir_buffer_length                       0x20000010   Data           4  main.o(.data)
    n_sp02                                   0x20000014   Data           4  main.o(.data)
    ch_spo2_valid                            0x20000018   Data           1  main.o(.data)
    n_heart_rate                             0x2000001c   Data           4  main.o(.data)
    ch_hr_valid                              0x20000020   Data           1  main.o(.data)
    usr                                      0x20000024   Data           8  main.o(.data)
    SystemCoreClock                          0x2000002c   Data           4  system_stm32f10x.o(.data)
    AHBPrescTable                            0x20000030   Data          16  system_stm32f10x.o(.data)
    USART3_RX_STA                            0x20000044   Data           2  usart.o(.data)
    Hzk1                                     0x2000005b   Data        2240  oled.o(.data)
    Hzk2                                     0x2000091b   Data         216  oled.o(.data)
    Hzk3                                     0x200009f3   Data         512  oled.o(.data)
    Hzk4                                     0x20000bf3   Data        4096  oled.o(.data)
    AS608Addr                                0x20001bf4   Data           4  as608.o(.data)
    str2                                     0x20001bf8   Data           6  as608.o(.data)
    esp8266_cnt                              0x20001bfe   Data           2  esp8266.o(.data)
    esp8266_cntPre                           0x20001c00   Data           2  esp8266.o(.data)
    Topic                                    0x20001c04   Data           4  onenet.o(.data)
    aun_ir_buffer                            0x20001c18   Data        2000  main.o(.bss)
    aun_red_buffer                           0x200023e8   Data        2000  main.o(.bss)
    buf                                      0x20002bb8   Data         128  main.o(.bss)
    USART3_RX_BUF                            0x20002c38   Data         400  usart.o(.bss)
    USART3_TX_BUF                            0x20002dc8   Data         400  usart.o(.bss)
    OLED_GRAM                                0x20002f58   Data        1152  oled.o(.bss)
    esp8266_buf                              0x20004b38   Data         128  esp8266.o(.bss)
    __libspace_start                         0x20004bb8   Data          96  libspace.o(.bss)
    __temporary_stack_top$libspace           0x20004c18   Data           0  libspace.o(.bss)



==============================================================================

Memory Map of the image

  Image Entry point : 0x08000131

  Load Region LR_IROM1 (Base: 0x08000000, Size: 0x0000c7a4, Max: 0x00080000, ABSOLUTE, COMPRESSED[0x0000b1c8])

    Execution Region ER_IROM1 (Base: 0x08000000, Size: 0x0000ab8c, Max: 0x00080000, ABSOLUTE)

    Base Addr    Size         Type   Attr      Idx    E Section Name        Object

    0x08000000   0x00000130   Data   RO         2204    RESET               startup_stm32f10x_hd.o
    0x08000130   0x00000008   Code   RO         2998  * !!!main             c_w.l(__main.o)
    0x08000138   0x00000034   Code   RO         3480    !!!scatter          c_w.l(__scatter.o)
    0x0800016c   0x0000005a   Code   RO         3478    !!dczerorl2         c_w.l(__dczerorl2.o)
    0x080001c6   0x00000002   PAD
    0x080001c8   0x0000001c   Code   RO         3482    !!handler_zi        c_w.l(__scatter_zi.o)
    0x080001e4   0x00000000   Code   RO         2973    .ARM.Collect$$_printf_percent$$00000000  c_w.l(_printf_percent.o)
    0x080001e4   0x00000006   Code   RO         3117    .ARM.Collect$$_printf_percent$$00000001  c_w.l(_printf_n.o)
    0x080001ea   0x00000006   Code   RO         3118    .ARM.Collect$$_printf_percent$$00000002  c_w.l(_printf_p.o)
    0x080001f0   0x00000006   Code   RO         2971    .ARM.Collect$$_printf_percent$$00000003  c_w.l(_printf_f.o)
    0x080001f6   0x00000006   Code   RO         2972    .ARM.Collect$$_printf_percent$$00000004  c_w.l(_printf_e.o)
    0x080001fc   0x00000006   Code   RO         3122    .ARM.Collect$$_printf_percent$$00000005  c_w.l(_printf_g.o)
    0x08000202   0x00000006   Code   RO         3123    .ARM.Collect$$_printf_percent$$00000006  c_w.l(_printf_a.o)
    0x08000208   0x0000000a   Code   RO         3128    .ARM.Collect$$_printf_percent$$00000007  c_w.l(_printf_ll.o)
    0x08000212   0x00000006   Code   RO         3120    .ARM.Collect$$_printf_percent$$00000008  c_w.l(_printf_i.o)
    0x08000218   0x00000006   Code   RO         2970    .ARM.Collect$$_printf_percent$$00000009  c_w.l(_printf_d.o)
    0x0800021e   0x00000006   Code   RO         3121    .ARM.Collect$$_printf_percent$$0000000A  c_w.l(_printf_u.o)
    0x08000224   0x00000006   Code   RO         3119    .ARM.Collect$$_printf_percent$$0000000B  c_w.l(_printf_o.o)
    0x0800022a   0x00000006   Code   RO         2969    .ARM.Collect$$_printf_percent$$0000000C  c_w.l(_printf_x.o)
    0x08000230   0x00000006   Code   RO         3125    .ARM.Collect$$_printf_percent$$0000000D  c_w.l(_printf_lli.o)
    0x08000236   0x00000006   Code   RO         3126    .ARM.Collect$$_printf_percent$$0000000E  c_w.l(_printf_lld.o)
    0x0800023c   0x00000006   Code   RO         3127    .ARM.Collect$$_printf_percent$$0000000F  c_w.l(_printf_llu.o)
    0x08000242   0x00000006   Code   RO         3132    .ARM.Collect$$_printf_percent$$00000010  c_w.l(_printf_llo.o)
    0x08000248   0x00000006   Code   RO         3133    .ARM.Collect$$_printf_percent$$00000011  c_w.l(_printf_llx.o)
    0x0800024e   0x0000000a   Code   RO         3129    .ARM.Collect$$_printf_percent$$00000012  c_w.l(_printf_l.o)
    0x08000258   0x00000006   Code   RO         3116    .ARM.Collect$$_printf_percent$$00000013  c_w.l(_printf_c.o)
    0x0800025e   0x00000006   Code   RO         2968    .ARM.Collect$$_printf_percent$$00000014  c_w.l(_printf_s.o)
    0x08000264   0x00000006   Code   RO         3130    .ARM.Collect$$_printf_percent$$00000015  c_w.l(_printf_lc.o)
    0x0800026a   0x00000006   Code   RO         3131    .ARM.Collect$$_printf_percent$$00000016  c_w.l(_printf_ls.o)
    0x08000270   0x00000004   Code   RO         3124    .ARM.Collect$$_printf_percent$$00000017  c_w.l(_printf_percent_end.o)
    0x08000274   0x00000002   Code   RO         3390    .ARM.Collect$$libinit$$00000000  c_w.l(libinit.o)
    0x08000276   0x00000000   Code   RO         3145    .ARM.Collect$$libinit$$00000002  c_w.l(libinit2.o)
    0x08000276   0x00000000   Code   RO         3147    .ARM.Collect$$libinit$$00000004  c_w.l(libinit2.o)
    0x08000276   0x00000008   Code   RO         3148    .ARM.Collect$$libinit$$00000005  c_w.l(libinit2.o)
    0x0800027e   0x00000000   Code   RO         3150    .ARM.Collect$$libinit$$0000000A  c_w.l(libinit2.o)
    0x0800027e   0x00000000   Code   RO         3152    .ARM.Collect$$libinit$$0000000C  c_w.l(libinit2.o)
    0x0800027e   0x00000000   Code   RO         3154    .ARM.Collect$$libinit$$0000000E  c_w.l(libinit2.o)
    0x0800027e   0x00000006   Code   RO         3155    .ARM.Collect$$libinit$$0000000F  c_w.l(libinit2.o)
    0x08000284   0x00000000   Code   RO         3157    .ARM.Collect$$libinit$$00000011  c_w.l(libinit2.o)
    0x08000284   0x0000000c   Code   RO         3158    .ARM.Collect$$libinit$$00000012  c_w.l(libinit2.o)
    0x08000290   0x00000000   Code   RO         3159    .ARM.Collect$$libinit$$00000013  c_w.l(libinit2.o)
    0x08000290   0x00000000   Code   RO         3161    .ARM.Collect$$libinit$$00000015  c_w.l(libinit2.o)
    0x08000290   0x0000000a   Code   RO         3162    .ARM.Collect$$libinit$$00000016  c_w.l(libinit2.o)
    0x0800029a   0x00000000   Code   RO         3163    .ARM.Collect$$libinit$$00000017  c_w.l(libinit2.o)
    0x0800029a   0x00000000   Code   RO         3165    .ARM.Collect$$libinit$$00000019  c_w.l(libinit2.o)
    0x0800029a   0x00000000   Code   RO         3167    .ARM.Collect$$libinit$$0000001B  c_w.l(libinit2.o)
    0x0800029a   0x00000000   Code   RO         3169    .ARM.Collect$$libinit$$0000001D  c_w.l(libinit2.o)
    0x0800029a   0x00000000   Code   RO         3171    .ARM.Collect$$libinit$$0000001F  c_w.l(libinit2.o)
    0x0800029a   0x00000000   Code   RO         3173    .ARM.Collect$$libinit$$00000021  c_w.l(libinit2.o)
    0x0800029a   0x00000000   Code   RO         3175    .ARM.Collect$$libinit$$00000023  c_w.l(libinit2.o)
    0x0800029a   0x00000000   Code   RO         3177    .ARM.Collect$$libinit$$00000025  c_w.l(libinit2.o)
    0x0800029a   0x00000000   Code   RO         3181    .ARM.Collect$$libinit$$0000002C  c_w.l(libinit2.o)
    0x0800029a   0x00000000   Code   RO         3183    .ARM.Collect$$libinit$$0000002E  c_w.l(libinit2.o)
    0x0800029a   0x00000000   Code   RO         3185    .ARM.Collect$$libinit$$00000030  c_w.l(libinit2.o)
    0x0800029a   0x00000000   Code   RO         3187    .ARM.Collect$$libinit$$00000032  c_w.l(libinit2.o)
    0x0800029a   0x00000002   Code   RO         3188    .ARM.Collect$$libinit$$00000033  c_w.l(libinit2.o)
    0x0800029c   0x00000002   Code   RO         3475    .ARM.Collect$$libshutdown$$00000000  c_w.l(libshutdown.o)
    0x0800029e   0x00000000   Code   RO         3393    .ARM.Collect$$libshutdown$$00000003  c_w.l(libshutdown2.o)
    0x0800029e   0x00000000   Code   RO         3396    .ARM.Collect$$libshutdown$$00000006  c_w.l(libshutdown2.o)
    0x0800029e   0x00000000   Code   RO         3399    .ARM.Collect$$libshutdown$$00000009  c_w.l(libshutdown2.o)
    0x0800029e   0x00000000   Code   RO         3401    .ARM.Collect$$libshutdown$$0000000B  c_w.l(libshutdown2.o)
    0x0800029e   0x00000000   Code   RO         3404    .ARM.Collect$$libshutdown$$0000000E  c_w.l(libshutdown2.o)
    0x0800029e   0x00000002   Code   RO         3405    .ARM.Collect$$libshutdown$$0000000F  c_w.l(libshutdown2.o)
    0x080002a0   0x00000000   Code   RO         3052    .ARM.Collect$$rtentry$$00000000  c_w.l(__rtentry.o)
    0x080002a0   0x00000000   Code   RO         3239    .ARM.Collect$$rtentry$$00000002  c_w.l(__rtentry2.o)
    0x080002a0   0x00000006   Code   RO         3251    .ARM.Collect$$rtentry$$00000004  c_w.l(__rtentry4.o)
    0x080002a6   0x00000000   Code   RO         3241    .ARM.Collect$$rtentry$$00000009  c_w.l(__rtentry2.o)
    0x080002a6   0x00000004   Code   RO         3242    .ARM.Collect$$rtentry$$0000000A  c_w.l(__rtentry2.o)
    0x080002aa   0x00000000   Code   RO         3244    .ARM.Collect$$rtentry$$0000000C  c_w.l(__rtentry2.o)
    0x080002aa   0x00000008   Code   RO         3245    .ARM.Collect$$rtentry$$0000000D  c_w.l(__rtentry2.o)
    0x080002b2   0x00000002   Code   RO         3412    .ARM.Collect$$rtexit$$00000000  c_w.l(rtexit.o)
    0x080002b4   0x00000000   Code   RO         3441    .ARM.Collect$$rtexit$$00000002  c_w.l(rtexit2.o)
    0x080002b4   0x00000004   Code   RO         3442    .ARM.Collect$$rtexit$$00000003  c_w.l(rtexit2.o)
    0x080002b8   0x00000006   Code   RO         3443    .ARM.Collect$$rtexit$$00000004  c_w.l(rtexit2.o)
    0x080002be   0x00000002   PAD
    0x080002c0   0x00000000   Code   RO         3260    .emb_text           c_w.l(maybetermalloc1.o)
    0x080002c0   0x00000040   Code   RO         2205    .text               startup_stm32f10x_hd.o
    0x08000300   0x0000005e   Code   RO         2849    .text               c_w.l(h1_alloc.o)
    0x0800035e   0x0000004e   Code   RO         2851    .text               c_w.l(h1_free.o)
    0x080003ac   0x0000001a   Code   RO         2907    .text               c_w.l(tolower.o)
    0x080003c6   0x00000002   PAD
    0x080003c8   0x00000034   Code   RO         2909    .text               c_w.l(c89vsnprintf.o)
    0x080003fc   0x0000002c   Code   RO         2913    .text               c_w.l(__2sprintf.o)
    0x08000428   0x0000004e   Code   RO         2921    .text               c_w.l(_printf_pad.o)
    0x08000476   0x00000052   Code   RO         2923    .text               c_w.l(_printf_str.o)
    0x080004c8   0x00000078   Code   RO         2925    .text               c_w.l(_printf_dec.o)
    0x08000540   0x00000094   Code   RO         2945    .text               c_w.l(_printf_hex_int_ll_ptr.o)
    0x080005d4   0x00000188   Code   RO         2965    .text               c_w.l(__printf_flags_ss_wp.o)
    0x0800075c   0x0000001a   Code   RO         2974    .text               c_w.l(atoi.o)
    0x08000776   0x00000014   Code   RO         2976    .text               c_w.l(strchr.o)
    0x0800078a   0x00000024   Code   RO         2978    .text               c_w.l(strncat.o)
    0x080007ae   0x00000024   Code   RO         2980    .text               c_w.l(strstr.o)
    0x080007d2   0x0000003e   Code   RO         2984    .text               c_w.l(strlen.o)
    0x08000810   0x00000096   Code   RO         2986    .text               c_w.l(strncmp.o)
    0x080008a6   0x0000008a   Code   RO         2988    .text               c_w.l(rt_memcpy_v6.o)
    0x08000930   0x00000064   Code   RO         2990    .text               c_w.l(rt_memcpy_w.o)
    0x08000994   0x00000044   Code   RO         2992    .text               c_w.l(rt_memclr.o)
    0x080009d8   0x0000004e   Code   RO         2994    .text               c_w.l(rt_memclr_w.o)
    0x08000a26   0x00000006   Code   RO         2996    .text               c_w.l(heapauxi.o)
    0x08000a2c   0x00000010   Code   RO         3053    .text               c_w.l(rt_ctype_table.o)
    0x08000a3c   0x00000008   Code   RO         3058    .text               c_w.l(rt_heap_descriptor_intlibspace.o)
    0x08000a44   0x00000008   Code   RO         3063    .text               c_w.l(rt_errno_addr_intlibspace.o)
    0x08000a4c   0x00000004   Code   RO         3065    .text               c_w.l(hguard.o)
    0x08000a50   0x0000008a   Code   RO         3067    .text               c_w.l(init_alloc.o)
    0x08000ada   0x0000000e   Code   RO         3071    .text               c_w.l(h1_init.o)
    0x08000ae8   0x00000016   Code   RO         3085    .text               c_w.l(_rserrno.o)
    0x08000afe   0x00000024   Code   RO         3087    .text               c_w.l(_printf_truncate.o)
    0x08000b22   0x000000b2   Code   RO         3089    .text               c_w.l(_printf_intcommon.o)
    0x08000bd4   0x00000028   Code   RO         3091    .text               c_w.l(_printf_charcount.o)
    0x08000bfc   0x0000041a   Code   RO         3093    .text               c_w.l(_printf_fp_dec.o)
    0x08001016   0x00000002   PAD
    0x08001018   0x00000030   Code   RO         3095    .text               c_w.l(_printf_char_common.o)
    0x08001048   0x0000000a   Code   RO         3097    .text               c_w.l(_sputc.o)
    0x08001052   0x00000010   Code   RO         3099    .text               c_w.l(_snputc.o)
    0x08001062   0x0000002c   Code   RO         3101    .text               c_w.l(_printf_char.o)
    0x0800108e   0x00000002   PAD
    0x08001090   0x000000bc   Code   RO         3105    .text               c_w.l(_printf_wctomb.o)
    0x0800114c   0x0000007c   Code   RO         3108    .text               c_w.l(_printf_longlong_dec.o)
    0x080011c8   0x00000070   Code   RO         3114    .text               c_w.l(_printf_oct_int_ll.o)
    0x08001238   0x00000070   Code   RO         3134    .text               c_w.l(strtol.o)
    0x080012a8   0x00000008   Code   RO         3235    .text               c_w.l(libspace.o)
    0x080012b0   0x00000008   Code   RO         3256    .text               c_w.l(rt_locale_intlibspace.o)
    0x080012b8   0x00000034   Code   RO         3262    .text               c_w.l(h1_extend.o)
    0x080012ec   0x0000008a   Code   RO         3266    .text               c_w.l(lludiv10.o)
    0x08001376   0x00000002   PAD
    0x08001378   0x00000080   Code   RO         3268    .text               c_w.l(_printf_fp_infnan.o)
    0x080013f8   0x0000002c   Code   RO         3272    .text               c_w.l(_printf_wchar.o)
    0x08001424   0x0000009e   Code   RO         3274    .text               c_w.l(_strtoul.o)
    0x080014c2   0x00000002   PAD
    0x080014c4   0x000000dc   Code   RO         3276    .text               c_w.l(bigflt0.o)
    0x080015a0   0x00000040   Code   RO         3315    .text               c_w.l(_wcrtomb.o)
    0x080015e0   0x0000000e   Code   RO         3323    .text               c_w.l(defsig_rtmem_outer.o)
    0x080015ee   0x00000002   Code   RO         3345    .text               c_w.l(use_no_semi.o)
    0x080015f0   0x00000000   Code   RO         3347    .text               c_w.l(indicate_semi.o)
    0x080015f0   0x0000004a   Code   RO         3348    .text               c_w.l(sys_stackheap_outer.o)
    0x0800163a   0x0000001c   Code   RO         3354    .text               c_w.l(_chval.o)
    0x08001656   0x0000000c   Code   RO         3369    .text               c_w.l(exit.o)
    0x08001662   0x0000000a   Code   RO         3371    .text               c_w.l(defsig_exit.o)
    0x0800166c   0x00000050   Code   RO         3377    .text               c_w.l(defsig_rtmem_inner.o)
    0x080016bc   0x00000080   Code   RO         3379    .text               c_w.l(strcmpv7m.o)
    0x0800173c   0x0000000c   Code   RO         3410    .text               c_w.l(sys_exit.o)
    0x08001748   0x00000032   Code   RO         3430    .text               c_w.l(defsig_general.o)
    0x0800177a   0x0000000e   Code   RO         3438    .text               c_w.l(sys_wrch.o)
    0x08001788   0x0000003e   Code   RO         3279    CL$$btod_d2e        c_w.l(btod.o)
    0x080017c6   0x00000046   Code   RO         3281    CL$$btod_d2e_denorm_low  c_w.l(btod.o)
    0x0800180c   0x00000060   Code   RO         3280    CL$$btod_d2e_norm_op1  c_w.l(btod.o)
    0x0800186c   0x00000338   Code   RO         3289    CL$$btod_div_common  c_w.l(btod.o)
    0x08001ba4   0x000000c6   Code   RO         3286    CL$$btod_e2e        c_w.l(btod.o)
    0x08001c6a   0x00000028   Code   RO         3283    CL$$btod_ediv       c_w.l(btod.o)
    0x08001c92   0x00000028   Code   RO         3282    CL$$btod_emul       c_w.l(btod.o)
    0x08001cba   0x00000244   Code   RO         3288    CL$$btod_mult_common  c_w.l(btod.o)
    0x08001efe   0x00000002   PAD
    0x08001f00   0x00000460   Code   RO         1928    i.Add_FR            as608.o
    0x08002360   0x00000004   Code   RO          175    i.BusFault_Handler  stm32f10x_it.o
    0x08002364   0x00000002   Code   RO          176    i.DebugMon_Handler  stm32f10x_it.o
    0x08002366   0x00000002   PAD
    0x08002368   0x0000001c   Code   RO         2209    i.ESP8266_Clear     esp8266.o
    0x08002384   0x00000050   Code   RO         2210    i.ESP8266_GetIPD    esp8266.o
    0x080023d4   0x000001ec   Code   RO         2211    i.ESP8266_Init      esp8266.o
    0x080025c0   0x00000054   Code   RO         2212    i.ESP8266_SendCmd   esp8266.o
    0x08002614   0x00000048   Code   RO         2213    i.ESP8266_SendData  esp8266.o
    0x0800265c   0x00000034   Code   RO         2214    i.ESP8266_WaitRecive  esp8266.o
    0x08002690   0x00000258   Code   RO         1930    i.EnsureMessage     as608.o
    0x080028e8   0x00000116   Code   RO          524    i.GPIO_Init         stm32f10x_gpio.o
    0x080029fe   0x00000012   Code   RO          528    i.GPIO_ReadInputDataBit  stm32f10x_gpio.o
    0x08002a10   0x00000004   Code   RO          531    i.GPIO_ResetBits    stm32f10x_gpio.o
    0x08002a14   0x00000004   Code   RO          532    i.GPIO_SetBits      stm32f10x_gpio.o
    0x08002a18   0x00000004   Code   RO          177    i.HardFault_Handler  stm32f10x_it.o
    0x08002a1c   0x00000038   Code   RO            1    i.Hardware_Init     main.o
    0x08002a54   0x00000050   Code   RO         1850    i.IIC_Ack           myiic.o
    0x08002aa4   0x00000034   Code   RO         1851    i.IIC_Init          myiic.o
    0x08002ad8   0x00000050   Code   RO         1852    i.IIC_NAck          myiic.o
    0x08002b28   0x00000070   Code   RO         1854    i.IIC_Read_Byte     myiic.o
    0x08002b98   0x00000068   Code   RO         1856    i.IIC_Send_Byte     myiic.o
    0x08002c00   0x0000004c   Code   RO         1857    i.IIC_Start         myiic.o
    0x08002c4c   0x0000004c   Code   RO         1858    i.IIC_Stop          myiic.o
    0x08002c98   0x00000064   Code   RO         1859    i.IIC_Wait_Ack      myiic.o
    0x08002cfc   0x00000088   Code   RO         1931    i.JudgeStr          as608.o
    0x08002d84   0x00000024   Code   RO         1560    i.KEY_Init          key.o
    0x08002da8   0x0000009c   Code   RO         1561    i.KEY_Scan          key.o
    0x08002e44   0x0000001c   Code   RO         2261    i.MQTT_DeleteBuffer  mqttkit.o
    0x08002e60   0x0000002e   Code   RO         2262    i.MQTT_DumpLength   mqttkit.o
    0x08002e8e   0x00000058   Code   RO         2263    i.MQTT_NewBuffer    mqttkit.o
    0x08002ee6   0x00000002   PAD
    0x08002ee8   0x0000008c   Code   RO         2264    i.MQTT_PacketCmdResp  mqttkit.o
    0x08002f74   0x000002a0   Code   RO         2265    i.MQTT_PacketConnect  mqttkit.o
    0x08003214   0x000001b8   Code   RO         2268    i.MQTT_PacketPublish  mqttkit.o
    0x080033cc   0x00000048   Code   RO         2269    i.MQTT_PacketPublishAck  mqttkit.o
    0x08003414   0x00000048   Code   RO         2270    i.MQTT_PacketPublishComp  mqttkit.o
    0x0800345c   0x00000048   Code   RO         2271    i.MQTT_PacketPublishRec  mqttkit.o
    0x080034a4   0x00000048   Code   RO         2272    i.MQTT_PacketPublishRel  mqttkit.o
    0x080034ec   0x000000fe   Code   RO         2275    i.MQTT_PacketSubscribe  mqttkit.o
    0x080035ea   0x00000046   Code   RO         2277    i.MQTT_ReadLength   mqttkit.o
    0x08003630   0x0000008c   Code   RO         2278    i.MQTT_UnPacketCmd  mqttkit.o
    0x080036bc   0x0000001e   Code   RO         2279    i.MQTT_UnPacketConnectAck  mqttkit.o
    0x080036da   0x00000002   PAD
    0x080036dc   0x000001c0   Code   RO         2280    i.MQTT_UnPacketPublish  mqttkit.o
    0x0800389c   0x0000001e   Code   RO         2281    i.MQTT_UnPacketPublishAck  mqttkit.o
    0x080038ba   0x0000001e   Code   RO         2282    i.MQTT_UnPacketPublishComp  mqttkit.o
    0x080038d8   0x0000001e   Code   RO         2283    i.MQTT_UnPacketPublishRec  mqttkit.o
    0x080038f6   0x00000024   Code   RO         2284    i.MQTT_UnPacketPublishRel  mqttkit.o
    0x0800391a   0x00000002   PAD
    0x0800391c   0x00000074   Code   RO         2285    i.MQTT_UnPacketRecv  mqttkit.o
    0x08003990   0x00000034   Code   RO         2286    i.MQTT_UnPacketSubscribe  mqttkit.o
    0x080039c4   0x00000012   Code   RO         2287    i.MQTT_UnPacketUnSubscribe  mqttkit.o
    0x080039d6   0x00000002   PAD
    0x080039d8   0x0000001c   Code   RO         1932    i.MYUSART_SendData  as608.o
    0x080039f4   0x00000004   Code   RO          178    i.MemManage_Handler  stm32f10x_it.o
    0x080039f8   0x00000002   Code   RO          179    i.NMI_Handler       stm32f10x_it.o
    0x080039fa   0x0000000c   Code   RO          326    i.NVIC_Configuration  sys.o
    0x08003a06   0x00000002   PAD
    0x08003a08   0x00000070   Code   RO          482    i.NVIC_Init         misc.o
    0x08003a78   0x00000014   Code   RO          483    i.NVIC_PriorityGroupConfig  misc.o
    0x08003a8c   0x00000030   Code   RO         1591    i.OLED_Clear        oled.o
    0x08003abc   0x00000060   Code   RO         1592    i.OLED_ClearPoint   oled.o
    0x08003b1c   0x0000003c   Code   RO         1599    i.OLED_DrawPoint    oled.o
    0x08003b58   0x00000188   Code   RO         1600    i.OLED_Init         oled.o
    0x08003ce0   0x00000016   Code   RO         1601    i.OLED_Pow          oled.o
    0x08003cf6   0x00000002   PAD
    0x08003cf8   0x0000004c   Code   RO         1602    i.OLED_Refresh      oled.o
    0x08003d44   0x000000fc   Code   RO         1605    i.OLED_ShowChar     oled.o
    0x08003e40   0x00000108   Code   RO         1606    i.OLED_ShowChinese  oled.o
    0x08003f48   0x00000074   Code   RO         1608    i.OLED_ShowNum      oled.o
    0x08003fbc   0x00000114   Code   RO         1611    i.OLED_Show_Await_Face  oled.o
    0x080040d0   0x00000080   Code   RO         1613    i.OLED_WR_Byte      oled.o
    0x08004150   0x00000220   Code   RO         2445    i.OneNet_DevLink    onenet.o
    0x08004370   0x0000007c   Code   RO         2446    i.OneNet_Publish    onenet.o
    0x080043ec   0x00000588   Code   RO         2447    i.OneNet_RevPro     onenet.o
    0x08004974   0x0000006c   Code   RO         2448    i.OneNet_Subscribe  onenet.o
    0x080049e0   0x000000ba   Code   RO         2119    i.PEC_Calculation   iic2.o
    0x08004a9a   0x00000046   Code   RO         1935    i.PS_GenChar        as608.o
    0x08004ae0   0x0000003a   Code   RO         1936    i.PS_GetImage       as608.o
    0x08004b1a   0x00000090   Code   RO         1938    i.PS_HighSpeedSearch  as608.o
    0x08004baa   0x0000003a   Code   RO         1939    i.PS_Match          as608.o
    0x08004be4   0x0000003a   Code   RO         1942    i.PS_RegModel       as608.o
    0x08004c1e   0x00000060   Code   RO         1945    i.PS_StoreChar      as608.o
    0x08004c7e   0x00000002   Code   RO          180    i.PendSV_Handler    stm32f10x_it.o
    0x08004c80   0x00000020   Code   RO          634    i.RCC_APB1PeriphClockCmd  stm32f10x_rcc.o
    0x08004ca0   0x00000020   Code   RO          636    i.RCC_APB2PeriphClockCmd  stm32f10x_rcc.o
    0x08004cc0   0x000000d4   Code   RO          644    i.RCC_GetClocksFreq  stm32f10x_rcc.o
    0x08004d94   0x0000001a   Code   RO         2120    i.SMBus_Delay       iic2.o
    0x08004dae   0x00000002   PAD
    0x08004db0   0x0000003c   Code   RO         2121    i.SMBus_Init        iic2.o
    0x08004dec   0x000000a6   Code   RO         2122    i.SMBus_ReadMemory  iic2.o
    0x08004e92   0x00000002   PAD
    0x08004e94   0x00000044   Code   RO         2123    i.SMBus_ReadTemp    iic2.o
    0x08004ed8   0x00000048   Code   RO         2124    i.SMBus_ReceiveBit  iic2.o
    0x08004f20   0x00000032   Code   RO         2125    i.SMBus_ReceiveByte  iic2.o
    0x08004f52   0x00000002   PAD
    0x08004f54   0x00000044   Code   RO         2126    i.SMBus_SendBit     iic2.o
    0x08004f98   0x00000030   Code   RO         2127    i.SMBus_SendByte    iic2.o
    0x08004fc8   0x00000044   Code   RO         2128    i.SMBus_StartBit    iic2.o
    0x0800500c   0x00000040   Code   RO         2129    i.SMBus_StopBit     iic2.o
    0x0800504c   0x00000002   Code   RO          181    i.SVC_Handler       stm32f10x_it.o
    0x0800504e   0x00000002   PAD
    0x08005050   0x00000034   Code   RO         1949    i.SendAddr          as608.o
    0x08005084   0x00000012   Code   RO         1950    i.SendCheck         as608.o
    0x08005096   0x0000000c   Code   RO         1951    i.SendFlag          as608.o
    0x080050a2   0x00000010   Code   RO         1952    i.SendHead          as608.o
    0x080050b2   0x00000014   Code   RO         1953    i.SendLength        as608.o
    0x080050c6   0x0000000c   Code   RO         1954    i.Sendcmd           as608.o
    0x080050d2   0x00000008   Code   RO          238    i.SetSysClock       system_stm32f10x.o
    0x080050da   0x00000002   PAD
    0x080050dc   0x000000e0   Code   RO          239    i.SetSysClockTo72   system_stm32f10x.o
    0x080051bc   0x0000001c   Code   RO         1955    i.ShowErrMessage    as608.o
    0x080051d8   0x00000028   Code   RO          486    i.SysTick_CLKSourceConfig  misc.o
    0x08005200   0x00000002   Code   RO          182    i.SysTick_Handler   stm32f10x_it.o
    0x08005202   0x00000002   PAD
    0x08005204   0x00000060   Code   RO          241    i.SystemInit        system_stm32f10x.o
    0x08005264   0x00000016   Code   RO          419    i.TIM2_IRQHandler   timer.o
    0x0800527a   0x00000002   PAD
    0x0800527c   0x0000001c   Code   RO          421    i.TIM3_IRQHandler   timer.o
    0x08005298   0x00000034   Code   RO          423    i.TIM7_IRQHandler   timer.o
    0x080052cc   0x00000060   Code   RO          424    i.TIM7_Int_Init     timer.o
    0x0800532c   0x00000006   Code   RO         1023    i.TIM_ClearITPendingBit  stm32f10x_tim.o
    0x08005332   0x00000018   Code   RO         1028    i.TIM_Cmd           stm32f10x_tim.o
    0x0800534a   0x00000022   Code   RO         1049    i.TIM_GetITStatus   stm32f10x_tim.o
    0x0800536c   0x00000012   Code   RO         1053    i.TIM_ITConfig      stm32f10x_tim.o
    0x0800537e   0x00000004   Code   RO         1093    i.TIM_SetCounter    stm32f10x_tim.o
    0x08005382   0x00000002   PAD
    0x08005384   0x000000a4   Code   RO         1099    i.TIM_TimeBaseInit  stm32f10x_tim.o
    0x08005428   0x00000070   Code   RO          354    i.UART4_IRQHandler  usart.o
    0x08005498   0x0000001c   Code   RO          355    i.USART1_IRQHandler  usart.o
    0x080054b4   0x0000004c   Code   RO         2215    i.USART2_IRQHandler  esp8266.o
    0x08005500   0x00000012   Code   RO          832    i.USART_ClearFlag   stm32f10x_usart.o
    0x08005512   0x00000018   Code   RO          836    i.USART_Cmd         stm32f10x_usart.o
    0x0800552a   0x0000001a   Code   RO          839    i.USART_GetFlagStatus  stm32f10x_usart.o
    0x08005544   0x00000054   Code   RO          840    i.USART_GetITStatus  stm32f10x_usart.o
    0x08005598   0x0000004a   Code   RO          842    i.USART_ITConfig    stm32f10x_usart.o
    0x080055e2   0x00000002   PAD
    0x080055e4   0x000000d8   Code   RO          843    i.USART_Init        stm32f10x_usart.o
    0x080056bc   0x0000000a   Code   RO          850    i.USART_ReceiveData  stm32f10x_usart.o
    0x080056c6   0x00000008   Code   RO          853    i.USART_SendData    stm32f10x_usart.o
    0x080056ce   0x00000004   Code   RO          183    i.UsageFault_Handler  stm32f10x_it.o
    0x080056d2   0x00000002   PAD
    0x080056d4   0x000000b0   Code   RO          356    i.Usart1_Init       usart.o
    0x08005784   0x000000ac   Code   RO          357    i.Usart2_Init       usart.o
    0x08005830   0x000000d0   Code   RO          358    i.Usart4_Init       usart.o
    0x08005900   0x00000048   Code   RO          359    i.UsartPrintf       usart.o
    0x08005948   0x00000032   Code   RO          360    i.Usart_SendString  usart.o
    0x0800597a   0x00000028   Code   RO         3220    i.__ARM_fpclassify  m_ws.l(fpclassify.o)
    0x080059a2   0x000000aa   Code   RO         3222    i.__kernel_poly     m_ws.l(poly.o)
    0x08005a4c   0x00000010   Code   RO         3206    i.__mathlib_dbl_divzero  m_ws.l(dunder.o)
    0x08005a5c   0x00000004   Code   RO         3208    i.__mathlib_dbl_infnan2  m_ws.l(dunder.o)
    0x08005a60   0x0000000c   Code   RO         3209    i.__mathlib_dbl_invalid  m_ws.l(dunder.o)
    0x08005a6c   0x0000000e   Code   RO         3210    i.__mathlib_dbl_overflow  m_ws.l(dunder.o)
    0x08005a7a   0x00000002   PAD
    0x08005a7c   0x00000010   Code   RO         3212    i.__mathlib_dbl_underflow  m_ws.l(dunder.o)
    0x08005a8c   0x0000000e   Code   RO         2958    i._is_digit         c_w.l(__printf_wp.o)
    0x08005a9a   0x00000002   PAD
    0x08005a9c   0x00000058   Code   RO         2507    i.cJSON_Delete      cjson.o
    0x08005af4   0x0000000c   Code   RO         2515    i.cJSON_GetErrorPtr  cjson.o
    0x08005b00   0x0000001e   Code   RO         2516    i.cJSON_GetObjectItem  cjson.o
    0x08005b1e   0x00000002   PAD
    0x08005b20   0x00000020   Code   RO         2520    i.cJSON_New_Item    cjson.o
    0x08005b40   0x00000010   Code   RO         2521    i.cJSON_Parse       cjson.o
    0x08005b50   0x00000064   Code   RO         2522    i.cJSON_ParseWithOpts  cjson.o
    0x08005bb4   0x0000004c   Code   RO         2528    i.cJSON_strcasecmp  cjson.o
    0x08005c00   0x00000044   Code   RO          272    i.delay_init        delay.o
    0x08005c44   0x0000004c   Code   RO          273    i.delay_ms          delay.o
    0x08005c90   0x0000004c   Code   RO          274    i.delay_us          delay.o
    0x08005cdc   0x000004a8   Code   RO            2    i.get_heartblood    main.o
    0x08006184   0x00000268   Code   RO            3    i.get_temperature   main.o
    0x080063ec   0x000000e0   Code   RO            4    i.main              main.o
    0x080064cc   0x00000052   Code   RO         1790    i.max30102_Bus_Read  max30102.o
    0x0800651e   0x00000044   Code   RO         1791    i.max30102_Bus_Write  max30102.o
    0x08006562   0x00000080   Code   RO         1792    i.max30102_FIFO_ReadBytes  max30102.o
    0x080065e2   0x00000002   PAD
    0x080065e4   0x00000088   Code   RO         1794    i.max30102_init     max30102.o
    0x0800666c   0x00000014   Code   RO         1795    i.max30102_reset    max30102.o
    0x08006680   0x00000042   Code   RO         1744    i.maxim_find_peaks  algorithm.o
    0x080066c2   0x00000002   PAD
    0x080066c4   0x00000500   Code   RO         1745    i.maxim_heart_rate_and_oxygen_saturation  algorithm.o
    0x08006bc4   0x0000007a   Code   RO         1746    i.maxim_peaks_above_min_height  algorithm.o
    0x08006c3e   0x00000072   Code   RO         1747    i.maxim_remove_close_peaks  algorithm.o
    0x08006cb0   0x00000036   Code   RO         1748    i.maxim_sort_ascend  algorithm.o
    0x08006ce6   0x00000040   Code   RO         1749    i.maxim_sort_indices_descend  algorithm.o
    0x08006d26   0x00000002   PAD
    0x08006d28   0x000000ac   Code   RO         2532    i.parse_array       cjson.o
    0x08006dd4   0x00000114   Code   RO         2533    i.parse_hex4        cjson.o
    0x08006ee8   0x000001bc   Code   RO         2534    i.parse_number      cjson.o
    0x080070a4   0x00000114   Code   RO         2535    i.parse_object      cjson.o
    0x080071b8   0x000001cc   Code   RO         2536    i.parse_string      cjson.o
    0x08007384   0x000000bc   Code   RO         2537    i.parse_value       cjson.o
    0x08007440   0x000009b8   Code   RO         3041    i.pow               m_ws.l(pow.o)
    0x08007df8   0x00000258   Code   RO         1956    i.press_FR          as608.o
    0x08008050   0x00000012   Code   RO         2545    i.skip              cjson.o
    0x08008062   0x0000004c   Code   RO         3226    i.sqrt              m_ws.l(sqrt.o)
    0x080080ae   0x00000002   PAD
    0x080080b0   0x0000002c   Code   RO         3318    locale$$code        c_w.l(lc_ctype_c.o)
    0x080080dc   0x0000002c   Code   RO         3321    locale$$code        c_w.l(lc_numeric_c.o)
    0x08008108   0x00000062   Code   RO         3000    x$fpl$d2f           fz_ws.l(d2f.o)
    0x0800816a   0x00000002   PAD
    0x0800816c   0x00000150   Code   RO         3002    x$fpl$dadd          fz_ws.l(daddsub_clz.o)
    0x080082bc   0x00000010   Code   RO         3332    x$fpl$dcheck1       fz_ws.l(dcheck1.o)
    0x080082cc   0x00000018   Code   RO         3189    x$fpl$dcmpinf       fz_ws.l(dcmpi.o)
    0x080082e4   0x000002b0   Code   RO         3192    x$fpl$ddiv          fz_ws.l(ddiv.o)
    0x08008594   0x0000005e   Code   RO         3010    x$fpl$dfix          fz_ws.l(dfix.o)
    0x080085f2   0x0000002e   Code   RO         3015    x$fpl$dflt          fz_ws.l(dflt_clz.o)
    0x08008620   0x00000026   Code   RO         3014    x$fpl$dfltu         fz_ws.l(dflt_clz.o)
    0x08008646   0x00000002   PAD
    0x08008648   0x00000078   Code   RO         3020    x$fpl$dleqf         fz_ws.l(dleqf.o)
    0x080086c0   0x00000154   Code   RO         3022    x$fpl$dmul          fz_ws.l(dmul.o)
    0x08008814   0x0000009c   Code   RO         3195    x$fpl$dnaninf       fz_ws.l(dnaninf.o)
    0x080088b0   0x0000000c   Code   RO         3197    x$fpl$dretinf       fz_ws.l(dretinf.o)
    0x080088bc   0x0000006c   Code   RO         3024    x$fpl$drleqf        fz_ws.l(drleqf.o)
    0x08008928   0x00000016   Code   RO         3003    x$fpl$drsb          fz_ws.l(daddsub_clz.o)
    0x0800893e   0x00000002   PAD
    0x08008940   0x000001cc   Code   RO         3334    x$fpl$dsqrt         fz_ws.l(dsqrt_noumaal.o)
    0x08008b0c   0x000001d4   Code   RO         3004    x$fpl$dsub          fz_ws.l(daddsub_clz.o)
    0x08008ce0   0x00000056   Code   RO         3026    x$fpl$f2d           fz_ws.l(f2d.o)
    0x08008d36   0x00000002   PAD
    0x08008d38   0x00000036   Code   RO         3028    x$fpl$ffix          fz_ws.l(ffix.o)
    0x08008d6e   0x00000002   PAD
    0x08008d70   0x00000102   Code   RO         3032    x$fpl$fmul          fz_ws.l(fmul.o)
    0x08008e72   0x0000008c   Code   RO         3199    x$fpl$fnaninf       fz_ws.l(fnaninf.o)
    0x08008efe   0x0000000a   Code   RO         3201    x$fpl$fretinf       fz_ws.l(fretinf.o)
    0x08008f08   0x00000004   Code   RO         3034    x$fpl$printf1       fz_ws.l(printf1.o)
    0x08008f0c   0x00000064   Code   RO         3408    x$fpl$retnan        fz_ws.l(retnan.o)
    0x08008f70   0x0000005c   Code   RO         3203    x$fpl$scalbn        fz_ws.l(scalbn.o)
    0x08008fcc   0x00000030   Code   RO         3436    x$fpl$trapveneer    fz_ws.l(trapv.o)
    0x08008ffc   0x00000000   Code   RO         3205    x$fpl$usenofp       fz_ws.l(usenofp.o)
    0x08008ffc   0x000017c0   Data   RO         1615    .constdata          oled.o
    0x0800a7bc   0x000000f6   Data   RO         1751    .constdata          algorithm.o
    0x0800a8b2   0x00000007   Data   RO         2548    .constdata          cjson.o
    0x0800a8b9   0x00000028   Data   RO         2946    .constdata          c_w.l(_printf_hex_int_ll_ptr.o)
    0x0800a8e1   0x00000011   Data   RO         2966    .constdata          c_w.l(__printf_flags_ss_wp.o)
    0x0800a8f2   0x00000006   PAD
    0x0800a8f8   0x00000088   Data   RO         3042    .constdata          m_ws.l(pow.o)
    0x0800a980   0x00000008   Data   RO         3106    .constdata          c_w.l(_printf_wctomb.o)
    0x0800a988   0x00000008   Data   RO         3224    .constdata          m_ws.l(qnan.o)
    0x0800a990   0x00000094   Data   RO         3277    .constdata          c_w.l(bigflt0.o)
    0x0800aa24   0x0000001a   Data   RO            6    .conststring        main.o
    0x0800aa3e   0x00000002   PAD
    0x0800aa40   0x00000020   Data   RO         3476    Region$$Table       anon$$obj.o
    0x0800aa60   0x00000110   Data   RO         3317    locale$$data        c_w.l(lc_ctype_c.o)
    0x0800ab70   0x0000001c   Data   RO         3320    locale$$data        c_w.l(lc_numeric_c.o)


    Execution Region RW_IRAM1 (Base: 0x20000000, Size: 0x00005218, Max: 0x00010000, ABSOLUTE, COMPRESSED[0x0000063c])

    Base Addr    Size         Type   Attr      Idx    E Section Name        Object

    0x20000000   0x0000002c   Data   RW            7    .data               main.o
    0x2000002c   0x00000014   Data   RW          242    .data               system_stm32f10x.o
    0x20000040   0x00000004   Data   RW          275    .data               delay.o
    0x20000044   0x00000002   Data   RW          362    .data               usart.o
    0x20000046   0x00000014   Data   RW          664    .data               stm32f10x_rcc.o
    0x2000005a   0x00000001   Data   RW         1562    .data               key.o
    0x2000005b   0x00001b98   Data   RW         1616    .data               oled.o
    0x20001bf3   0x00000001   PAD
    0x20001bf4   0x0000000a   Data   RW         1958    .data               as608.o
    0x20001bfe   0x00000004   Data   RW         2217    .data               esp8266.o
    0x20001c02   0x00000002   PAD
    0x20001c04   0x00000006   Data   RW         2450    .data               onenet.o
    0x20001c0a   0x00000002   PAD
    0x20001c0c   0x0000000c   Data   RW         2549    .data               cjson.o
    0x20001c18   0x00001020   Zero   RW            5    .bss                main.o
    0x20002c38   0x00000320   Zero   RW          361    .bss                usart.o
    0x20002f58   0x00000480   Zero   RW         1614    .bss                oled.o
    0x200033d8   0x00001760   Zero   RW         1750    .bss                algorithm.o
    0x20004b38   0x00000080   Zero   RW         2216    .bss                esp8266.o
    0x20004bb8   0x00000060   Zero   RW         3236    .bss                c_w.l(libspace.o)
    0x20004c18   0x00000200   Zero   RW         2203    HEAP                startup_stm32f10x_hd.o
    0x20004e18   0x00000400   Zero   RW         2202    STACK               startup_stm32f10x_hd.o


==============================================================================

Image component sizes


      Code (inc. data)   RO Data    RW Data    ZI Data      Debug   Object Name

      1700         30        246          0       5984       6961   algorithm.o
      3126        754          0         10          0      11636   as608.o
      2188         88          7         12          0      11553   cjson.o
         0          0          0          0          0         32   core_cm3.o
       220         26          0          4          0     206287   delay.o
       884        358          0          4        128       4779   esp8266.o
       876         38          0          0          0       6386   iic2.o
       192         14          0          1          0       1062   key.o
      2088        398         26         44       4128     255000   main.o
       434          6          0          0          0       3224   max30102.o
       172         22          0          0          0       1933   misc.o
      2956         34          0          0          0      18361   mqttkit.o
       680        102          0          0          0       3950   myiic.o
      1730         82       6080       7064       1152       8503   oled.o
      2192       1048          0          6          0       7172   onenet.o
        64         26        304          0       1536        772   startup_stm32f10x_hd.o
       304          0          0          0          0       3480   stm32f10x_gpio.o
        26          0          0          0          0       3426   stm32f10x_it.o
       276         32          0         20          0       4286   stm32f10x_rcc.o
       250         42          0          0          0       3855   stm32f10x_tim.o
       460          6          0          0          0       6387   stm32f10x_usart.o
        12          0          0          0          0        425   sys.o
       328         28          0         20          0       1937   system_stm32f10x.o
       198         22          0          0          0       1918   timer.o
       818         58          0          2        800       5998   usart.o

    ----------------------------------------------------------------------
     22216       3214       6697       7192      13728     579323   Object Totals
         0          0         32          0          0          0   (incl. Generated)
        42          0          2          5          0          0   (incl. Padding)

    ----------------------------------------------------------------------

      Code (inc. data)   RO Data    RW Data    ZI Data      Debug   Library Member Name

        44          6          0          0          0         84   __2sprintf.o
        90          0          0          0          0          0   __dczerorl2.o
         8          0          0          0          0         68   __main.o
       392          4         17          0          0         92   __printf_flags_ss_wp.o
        14          0          0          0          0         68   __printf_wp.o
         0          0          0          0          0          0   __rtentry.o
        12          0          0          0          0          0   __rtentry2.o
         6          0          0          0          0          0   __rtentry4.o
        52          8          0          0          0          0   __scatter.o
        28          0          0          0          0          0   __scatter_zi.o
        28          0          0          0          0         68   _chval.o
         6          0          0          0          0          0   _printf_a.o
         6          0          0          0          0          0   _printf_c.o
        44          0          0          0          0        108   _printf_char.o
        48          6          0          0          0         96   _printf_char_common.o
        40          0          0          0          0         68   _printf_charcount.o
         6          0          0          0          0          0   _printf_d.o
       120         16          0          0          0         92   _printf_dec.o
         6          0          0          0          0          0   _printf_e.o
         6          0          0          0          0          0   _printf_f.o
      1050          0          0          0          0        216   _printf_fp_dec.o
       128         16          0          0          0         84   _printf_fp_infnan.o
         6          0          0          0          0          0   _printf_g.o
       148          4         40          0          0        160   _printf_hex_int_ll_ptr.o
         6          0          0          0          0          0   _printf_i.o
       178          0          0          0          0         88   _printf_intcommon.o
        10          0          0          0          0          0   _printf_l.o
         6          0          0          0          0          0   _printf_lc.o
        10          0          0          0          0          0   _printf_ll.o
         6          0          0          0          0          0   _printf_lld.o
         6          0          0          0          0          0   _printf_lli.o
         6          0          0          0          0          0   _printf_llo.o
         6          0          0          0          0          0   _printf_llu.o
         6          0          0          0          0          0   _printf_llx.o
       124         16          0          0          0         92   _printf_longlong_dec.o
         6          0          0          0          0          0   _printf_ls.o
         6          0          0          0          0          0   _printf_n.o
         6          0          0          0          0          0   _printf_o.o
       112          8          0          0          0        124   _printf_oct_int_ll.o
         6          0          0          0          0          0   _printf_p.o
        78          0          0          0          0        108   _printf_pad.o
         0          0          0          0          0          0   _printf_percent.o
         4          0          0          0          0          0   _printf_percent_end.o
         6          0          0          0          0          0   _printf_s.o
        82          0          0          0          0         80   _printf_str.o
        36          0          0          0          0         84   _printf_truncate.o
         6          0          0          0          0          0   _printf_u.o
        44          0          0          0          0        108   _printf_wchar.o
       188          6          8          0          0         92   _printf_wctomb.o
         6          0          0          0          0          0   _printf_x.o
        22          0          0          0          0        100   _rserrno.o
        16          0          0          0          0         68   _snputc.o
        10          0          0          0          0         68   _sputc.o
       158          0          0          0          0         92   _strtoul.o
        64          0          0          0          0         92   _wcrtomb.o
        26          0          0          0          0         80   atoi.o
       220          4        148          0          0         96   bigflt0.o
      1910        128          0          0          0        672   btod.o
        52          4          0          0          0         80   c89vsnprintf.o
        10          0          0          0          0         68   defsig_exit.o
        50          0          0          0          0         88   defsig_general.o
        80         58          0          0          0         76   defsig_rtmem_inner.o
        14          0          0          0          0         80   defsig_rtmem_outer.o
        12          0          0          0          0         72   exit.o
        94          0          0          0          0         80   h1_alloc.o
        52          0          0          0          0         68   h1_extend.o
        78          0          0          0          0         80   h1_free.o
        14          0          0          0          0         84   h1_init.o
         6          0          0          0          0        152   heapauxi.o
         4          0          0          0          0        136   hguard.o
         0          0          0          0          0          0   indicate_semi.o
       138          0          0          0          0        168   init_alloc.o
        44         10        272          0          0         76   lc_ctype_c.o
        44         10         28          0          0         76   lc_numeric_c.o
         2          0          0          0          0          0   libinit.o
        38          0          0          0          0          0   libinit2.o
         2          0          0          0          0          0   libshutdown.o
         2          0          0          0          0          0   libshutdown2.o
         8          4          0          0         96         68   libspace.o
       138          0          0          0          0         80   lludiv10.o
         0          0          0          0          0          0   maybetermalloc1.o
        16          4          0          0          0         76   rt_ctype_table.o
         8          4          0          0          0         68   rt_errno_addr_intlibspace.o
         8          4          0          0          0         68   rt_heap_descriptor_intlibspace.o
         8          4          0          0          0         68   rt_locale_intlibspace.o
        68          0          0          0          0         68   rt_memclr.o
        78          0          0          0          0         80   rt_memclr_w.o
       138          0          0          0          0         68   rt_memcpy_v6.o
       100          0          0          0          0         80   rt_memcpy_w.o
         2          0          0          0          0          0   rtexit.o
        10          0          0          0          0          0   rtexit2.o
        20          0          0          0          0         68   strchr.o
       128          0          0          0          0         68   strcmpv7m.o
        62          0          0          0          0         76   strlen.o
        36          0          0          0          0         76   strncat.o
       150          0          0          0          0         80   strncmp.o
        36          0          0          0          0         80   strstr.o
       112          0          0          0          0         88   strtol.o
        12          4          0          0          0         68   sys_exit.o
        74          0          0          0          0         80   sys_stackheap_outer.o
        14          0          0          0          0         76   sys_wrch.o
        26          0          0          0          0         76   tolower.o
         2          0          0          0          0         68   use_no_semi.o
        98          4          0          0          0         92   d2f.o
       826         16          0          0          0        348   daddsub_clz.o
        16          4          0          0          0         68   dcheck1.o
        24          0          0          0          0         68   dcmpi.o
       688        140          0          0          0        208   ddiv.o
        94          4          0          0          0         92   dfix.o
        84          0          0          0          0        136   dflt_clz.o
       120          4          0          0          0         92   dleqf.o
       340         12          0          0          0        104   dmul.o
       156          4          0          0          0         92   dnaninf.o
        12          0          0          0          0         68   dretinf.o
       108          0          0          0          0         80   drleqf.o
       460         56          0          0          0        120   dsqrt_noumaal.o
        86          4          0          0          0         84   f2d.o
        54          4          0          0          0         84   ffix.o
       258          4          0          0          0         84   fmul.o
       140          4          0          0          0         84   fnaninf.o
        10          0          0          0          0         68   fretinf.o
         4          0          0          0          0         68   printf1.o
       100          0          0          0          0         68   retnan.o
        92          0          0          0          0         68   scalbn.o
        48          0          0          0          0         68   trapv.o
         0          0          0          0          0          0   usenofp.o
        62         10          0          0          0        340   dunder.o
        40          0          0          0          0         68   fpclassify.o
       170          0          0          0          0         96   poly.o
      2488        190        136          0          0        300   pow.o
         0          0          8          0          0          0   qnan.o
        76          0          0          0          0         84   sqrt.o

    ----------------------------------------------------------------------
     14340        788        663          0         96       9392   Library Totals
        32          0          6          0          0          0   (incl. Padding)

    ----------------------------------------------------------------------

      Code (inc. data)   RO Data    RW Data    ZI Data      Debug   Library Name

      7654        328        513          0         96       6260   c_w.l
      3818        260          0          0          0       2244   fz_ws.l
      2836        200        144          0          0        888   m_ws.l

    ----------------------------------------------------------------------
     14340        788        663          0         96       9392   Library Totals

    ----------------------------------------------------------------------

==============================================================================


      Code (inc. data)   RO Data    RW Data    ZI Data      Debug   

     36556       4002       7360       7192      13824     575087   Grand Totals
     36556       4002       7360       1596      13824     575087   ELF Image Totals (compressed)
     36556       4002       7360       1596          0          0   ROM Totals

==============================================================================

    Total RO  Size (Code + RO Data)                43916 (  42.89kB)
    Total RW  Size (RW Data + ZI Data)             21016 (  20.52kB)
    Total ROM Size (Code + RO Data + RW Data)      45512 (  44.45kB)

==============================================================================

